
scbound.elf:     file format elf32-avr

Sections:
Idx Name          Size      VMA       LMA       File off  Algn
  0 .data         00000004  00800100  000017d6  0000186a  2**0
                  CONTENTS, ALLOC, LOAD, DATA
  1 .text         000017d6  00000000  00000000  00000094  2**1
                  CONTENTS, ALLOC, LOAD, READONLY, CODE
  2 .bss          000000fd  00800104  00800104  0000186e  2**0
                  ALLOC
  3 .comment      00000030  00000000  00000000  0000186e  2**0
                  CONTENTS, READONLY
  4 .note.gnu.avr.deviceinfo 00000040  00000000  00000000  000018a0  2**2
                  CONTENTS, READONLY
  5 .debug_aranges 000001f8  00000000  00000000  000018e0  2**0
                  CONTENTS, READONLY, DEBUGGING
  6 .debug_info   0000200b  00000000  00000000  00001ad8  2**0
                  CONTENTS, READONLY, DEBUGGING
  7 .debug_abbrev 000004d3  00000000  00000000  00003ae3  2**0
                  CONTENTS, READONLY, DEBUGGING
  8 .debug_line   000017a9  00000000  00000000  00003fb6  2**0
                  CONTENTS, READONLY, DEBUGGING
  9 .debug_frame  000006dc  00000000  00000000  00005760  2**2
                  CONTENTS, READONLY, DEBUGGING
 10 .debug_str    00000756  00000000  00000000  00005e3c  2**0
                  CONTENTS, READONLY, DEBUGGING
 11 .debug_loc    00001ebf  00000000  00000000  00006592  2**0
                  CONTENTS, READONLY, DEBUGGING
 12 .debug_ranges 00000390  00000000  00000000  00008451  2**0
                  CONTENTS, READONLY, DEBUGGING

Disassembly of section .text:

00000000 <__vectors>:
       0:	45 c0       	rjmp	.+138    	; 0x8c <__ctors_end>
       2:	00 00       	nop
       4:	62 c0       	rjmp	.+196    	; 0xca <__bad_interrupt>
       6:	00 00       	nop
       8:	60 c0       	rjmp	.+192    	; 0xca <__bad_interrupt>
       a:	00 00       	nop
       c:	5e c0       	rjmp	.+188    	; 0xca <__bad_interrupt>
       e:	00 00       	nop
      10:	5c c0       	rjmp	.+184    	; 0xca <__bad_interrupt>
      12:	00 00       	nop
      14:	5a c0       	rjmp	.+180    	; 0xca <__bad_interrupt>
      16:	00 00       	nop
      18:	58 c0       	rjmp	.+176    	; 0xca <__bad_interrupt>
      1a:	00 00       	nop
      1c:	56 c0       	rjmp	.+172    	; 0xca <__bad_interrupt>
      1e:	00 00       	nop
      20:	54 c0       	rjmp	.+168    	; 0xca <__bad_interrupt>
      22:	00 00       	nop
      24:	52 c0       	rjmp	.+164    	; 0xca <__bad_interrupt>
      26:	00 00       	nop
      28:	50 c0       	rjmp	.+160    	; 0xca <__bad_interrupt>
      2a:	00 00       	nop
      2c:	4e c0       	rjmp	.+156    	; 0xca <__bad_interrupt>
      2e:	00 00       	nop
      30:	4c c0       	rjmp	.+152    	; 0xca <__bad_interrupt>
      32:	00 00       	nop
      34:	e2 c0       	rjmp	.+452    	; 0x1fa <__vector_13>
      36:	00 00       	nop
      38:	48 c0       	rjmp	.+144    	; 0xca <__bad_interrupt>
      3a:	00 00       	nop
      3c:	46 c0       	rjmp	.+140    	; 0xca <__bad_interrupt>
      3e:	00 00       	nop
      40:	44 c0       	rjmp	.+136    	; 0xca <__bad_interrupt>
      42:	00 00       	nop
      44:	42 c0       	rjmp	.+132    	; 0xca <__bad_interrupt>
      46:	00 00       	nop
      48:	40 c0       	rjmp	.+128    	; 0xca <__bad_interrupt>
      4a:	00 00       	nop
      4c:	3e c0       	rjmp	.+124    	; 0xca <__bad_interrupt>
      4e:	00 00       	nop
      50:	3c c0       	rjmp	.+120    	; 0xca <__bad_interrupt>
      52:	00 00       	nop
      54:	3a c0       	rjmp	.+116    	; 0xca <__bad_interrupt>
      56:	00 00       	nop
      58:	38 c0       	rjmp	.+112    	; 0xca <__bad_interrupt>
      5a:	00 00       	nop
      5c:	36 c0       	rjmp	.+108    	; 0xca <__bad_interrupt>
      5e:	00 00       	nop
      60:	34 c0       	rjmp	.+104    	; 0xca <__bad_interrupt>
      62:	00 00       	nop
      64:	32 c0       	rjmp	.+100    	; 0xca <__bad_interrupt>
      66:	00 00       	nop
      68:	30 c0       	rjmp	.+96     	; 0xca <__bad_interrupt>
      6a:	00 00       	nop
      6c:	2e c0       	rjmp	.+92     	; 0xca <__bad_interrupt>
      6e:	00 00       	nop
      70:	2c c0       	rjmp	.+88     	; 0xca <__bad_interrupt>
      72:	00 00       	nop
      74:	2a c0       	rjmp	.+84     	; 0xca <__bad_interrupt>
      76:	00 00       	nop
      78:	28 c0       	rjmp	.+80     	; 0xca <__bad_interrupt>
      7a:	00 00       	nop
      7c:	26 c0       	rjmp	.+76     	; 0xca <__bad_interrupt>
      7e:	00 00       	nop
      80:	24 c0       	rjmp	.+72     	; 0xca <__bad_interrupt>
      82:	00 00       	nop
      84:	22 c0       	rjmp	.+68     	; 0xca <__bad_interrupt>
      86:	00 00       	nop
      88:	20 c0       	rjmp	.+64     	; 0xca <__bad_interrupt>
	...

0000008c <__ctors_end>:
      8c:	11 24       	eor	r1, r1
      8e:	1f be       	out	0x3f, r1	; 63
      90:	cf ef       	ldi	r28, 0xFF	; 255
      92:	d0 e4       	ldi	r29, 0x40	; 64
      94:	de bf       	out	0x3e, r29	; 62
      96:	cd bf       	out	0x3d, r28	; 61

00000098 <__do_copy_data>:
      98:	11 e0       	ldi	r17, 0x01	; 1
      9a:	a0 e0       	ldi	r26, 0x00	; 0
      9c:	b1 e0       	ldi	r27, 0x01	; 1
      9e:	e6 ed       	ldi	r30, 0xD6	; 214
      a0:	f7 e1       	ldi	r31, 0x17	; 23
      a2:	00 e0       	ldi	r16, 0x00	; 0
      a4:	0b bf       	out	0x3b, r16	; 59
      a6:	02 c0       	rjmp	.+4      	; 0xac <__do_copy_data+0x14>
      a8:	07 90       	elpm	r0, Z+
      aa:	0d 92       	st	X+, r0
      ac:	a4 30       	cpi	r26, 0x04	; 4
      ae:	b1 07       	cpc	r27, r17
      b0:	d9 f7       	brne	.-10     	; 0xa8 <__do_copy_data+0x10>

000000b2 <__do_clear_bss>:
      b2:	22 e0       	ldi	r18, 0x02	; 2
      b4:	a4 e0       	ldi	r26, 0x04	; 4
      b6:	b1 e0       	ldi	r27, 0x01	; 1
      b8:	01 c0       	rjmp	.+2      	; 0xbc <.do_clear_bss_start>

000000ba <.do_clear_bss_loop>:
      ba:	1d 92       	st	X+, r1

000000bc <.do_clear_bss_start>:
      bc:	a1 30       	cpi	r26, 0x01	; 1
      be:	b2 07       	cpc	r27, r18
      c0:	e1 f7       	brne	.-8      	; 0xba <.do_clear_bss_loop>
      c2:	0e 94 5f 0b 	call	0x16be	; 0x16be <main>
      c6:	0c 94 e9 0b 	jmp	0x17d2	; 0x17d2 <_exit>

000000ca <__bad_interrupt>:
      ca:	9a cf       	rjmp	.-204    	; 0x0 <__vectors>

000000cc <ETIMERTick>:
	d3_setMatrixColor(blankMatrix.m, BLUE);
	d3_setMatrixColor(blankMatrix.m, RED);
}

void KB_Tick() {
	kpReceiver();
      cc:	00 97       	sbiw	r24, 0x00	; 0
      ce:	21 f0       	breq	.+8      	; 0xd8 <ETIMERTick+0xc>
      d0:	81 30       	cpi	r24, 0x01	; 1
      d2:	91 05       	cpc	r25, r1
      d4:	49 f0       	breq	.+18     	; 0xe8 <ETIMERTick+0x1c>
      d6:	05 c0       	rjmp	.+10     	; 0xe2 <ETIMERTick+0x16>
      d8:	10 92 05 01 	sts	0x0105, r1
      dc:	10 92 04 01 	sts	0x0104, r1
      e0:	03 c0       	rjmp	.+6      	; 0xe8 <ETIMERTick+0x1c>
      e2:	81 30       	cpi	r24, 0x01	; 1
      e4:	91 05       	cpc	r25, r1
      e6:	f1 f4       	brne	.+60     	; 0x124 <ETIMERTick+0x58>
      e8:	80 91 04 01 	lds	r24, 0x0104
      ec:	90 91 05 01 	lds	r25, 0x0105
      f0:	0a 96       	adiw	r24, 0x0a	; 10
      f2:	90 93 05 01 	sts	0x0105, r25
      f6:	80 93 04 01 	sts	0x0104, r24
      fa:	80 91 10 01 	lds	r24, 0x0110
      fe:	90 91 11 01 	lds	r25, 0x0111
     102:	a0 91 12 01 	lds	r26, 0x0112
     106:	b0 91 13 01 	lds	r27, 0x0113
     10a:	0a 96       	adiw	r24, 0x0a	; 10
     10c:	a1 1d       	adc	r26, r1
     10e:	b1 1d       	adc	r27, r1
     110:	80 93 10 01 	sts	0x0110, r24
     114:	90 93 11 01 	sts	0x0111, r25
     118:	a0 93 12 01 	sts	0x0112, r26
     11c:	b0 93 13 01 	sts	0x0113, r27
     120:	81 e0       	ldi	r24, 0x01	; 1
     122:	90 e0       	ldi	r25, 0x00	; 0
     124:	08 95       	ret

00000126 <initTasks>:
     126:	e8 e1       	ldi	r30, 0x18	; 24
     128:	f1 e0       	ldi	r31, 0x01	; 1
     12a:	11 82       	std	Z+1, r1	; 0x01
     12c:	10 82       	st	Z, r1
     12e:	8a e0       	ldi	r24, 0x0A	; 10
     130:	90 e0       	ldi	r25, 0x00	; 0
     132:	a0 e0       	ldi	r26, 0x00	; 0
     134:	b0 e0       	ldi	r27, 0x00	; 0
     136:	82 83       	std	Z+2, r24	; 0x02
     138:	93 83       	std	Z+3, r25	; 0x03
     13a:	a4 83       	std	Z+4, r26	; 0x04
     13c:	b5 83       	std	Z+5, r27	; 0x05
     13e:	86 83       	std	Z+6, r24	; 0x06
     140:	97 83       	std	Z+7, r25	; 0x07
     142:	a0 87       	std	Z+8, r26	; 0x08
     144:	b1 87       	std	Z+9, r27	; 0x09
     146:	86 e6       	ldi	r24, 0x66	; 102
     148:	90 e0       	ldi	r25, 0x00	; 0
     14a:	93 87       	std	Z+11, r25	; 0x0b
     14c:	82 87       	std	Z+10, r24	; 0x0a
     14e:	08 95       	ret

00000150 <TimerOn>:
     150:	8b e0       	ldi	r24, 0x0B	; 11
     152:	80 93 81 00 	sts	0x0081, r24
     156:	8d e7       	ldi	r24, 0x7D	; 125
     158:	90 e0       	ldi	r25, 0x00	; 0
     15a:	90 93 89 00 	sts	0x0089, r25
     15e:	80 93 88 00 	sts	0x0088, r24
     162:	82 e0       	ldi	r24, 0x02	; 2
     164:	80 93 6f 00 	sts	0x006F, r24
     168:	10 92 85 00 	sts	0x0085, r1
     16c:	10 92 84 00 	sts	0x0084, r1
     170:	80 91 00 01 	lds	r24, 0x0100
     174:	90 91 01 01 	lds	r25, 0x0101
     178:	a0 91 02 01 	lds	r26, 0x0102
     17c:	b0 91 03 01 	lds	r27, 0x0103
     180:	80 93 14 01 	sts	0x0114, r24
     184:	90 93 15 01 	sts	0x0115, r25
     188:	a0 93 16 01 	sts	0x0116, r26
     18c:	b0 93 17 01 	sts	0x0117, r27
     190:	8f b7       	in	r24, 0x3f	; 63
     192:	80 68       	ori	r24, 0x80	; 128
     194:	8f bf       	out	0x3f, r24	; 63
     196:	08 95       	ret

00000198 <TimerISR>:
     198:	cf 93       	push	r28
     19a:	df 93       	push	r29
     19c:	e8 e1       	ldi	r30, 0x18	; 24
     19e:	f1 e0       	ldi	r31, 0x01	; 1
     1a0:	86 81       	ldd	r24, Z+6	; 0x06
     1a2:	97 81       	ldd	r25, Z+7	; 0x07
     1a4:	a0 85       	ldd	r26, Z+8	; 0x08
     1a6:	b1 85       	ldd	r27, Z+9	; 0x09
     1a8:	42 81       	ldd	r20, Z+2	; 0x02
     1aa:	53 81       	ldd	r21, Z+3	; 0x03
     1ac:	64 81       	ldd	r22, Z+4	; 0x04
     1ae:	75 81       	ldd	r23, Z+5	; 0x05
     1b0:	84 17       	cp	r24, r20
     1b2:	95 07       	cpc	r25, r21
     1b4:	a6 07       	cpc	r26, r22
     1b6:	b7 07       	cpc	r27, r23
     1b8:	90 f0       	brcs	.+36     	; 0x1de <TimerISR+0x46>
     1ba:	ef 01       	movw	r28, r30
     1bc:	02 84       	ldd	r0, Z+10	; 0x0a
     1be:	f3 85       	ldd	r31, Z+11	; 0x0b
     1c0:	e0 2d       	mov	r30, r0
     1c2:	88 81       	ld	r24, Y
     1c4:	99 81       	ldd	r25, Y+1	; 0x01
     1c6:	09 95       	icall
     1c8:	99 83       	std	Y+1, r25	; 0x01
     1ca:	88 83       	st	Y, r24
     1cc:	8a e0       	ldi	r24, 0x0A	; 10
     1ce:	90 e0       	ldi	r25, 0x00	; 0
     1d0:	a0 e0       	ldi	r26, 0x00	; 0
     1d2:	b0 e0       	ldi	r27, 0x00	; 0
     1d4:	8e 83       	std	Y+6, r24	; 0x06
     1d6:	9f 83       	std	Y+7, r25	; 0x07
     1d8:	a8 87       	std	Y+8, r26	; 0x08
     1da:	b9 87       	std	Y+9, r27	; 0x09
     1dc:	0b c0       	rjmp	.+22     	; 0x1f4 <TimerISR+0x5c>
     1de:	0a 96       	adiw	r24, 0x0a	; 10
     1e0:	a1 1d       	adc	r26, r1
     1e2:	b1 1d       	adc	r27, r1
     1e4:	80 93 1e 01 	sts	0x011E, r24
     1e8:	90 93 1f 01 	sts	0x011F, r25
     1ec:	a0 93 20 01 	sts	0x0120, r26
     1f0:	b0 93 21 01 	sts	0x0121, r27
     1f4:	df 91       	pop	r29
     1f6:	cf 91       	pop	r28
     1f8:	08 95       	ret

000001fa <__vector_13>:
     1fa:	1f 92       	push	r1
     1fc:	0f 92       	push	r0
     1fe:	0f b6       	in	r0, 0x3f	; 63
     200:	0f 92       	push	r0
     202:	11 24       	eor	r1, r1
     204:	0b b6       	in	r0, 0x3b	; 59
     206:	0f 92       	push	r0
     208:	2f 93       	push	r18
     20a:	3f 93       	push	r19
     20c:	4f 93       	push	r20
     20e:	5f 93       	push	r21
     210:	6f 93       	push	r22
     212:	7f 93       	push	r23
     214:	8f 93       	push	r24
     216:	9f 93       	push	r25
     218:	af 93       	push	r26
     21a:	bf 93       	push	r27
     21c:	ef 93       	push	r30
     21e:	ff 93       	push	r31
     220:	80 91 14 01 	lds	r24, 0x0114
     224:	90 91 15 01 	lds	r25, 0x0115
     228:	a0 91 16 01 	lds	r26, 0x0116
     22c:	b0 91 17 01 	lds	r27, 0x0117
     230:	01 97       	sbiw	r24, 0x01	; 1
     232:	a1 09       	sbc	r26, r1
     234:	b1 09       	sbc	r27, r1
     236:	80 93 14 01 	sts	0x0114, r24
     23a:	90 93 15 01 	sts	0x0115, r25
     23e:	a0 93 16 01 	sts	0x0116, r26
     242:	b0 93 17 01 	sts	0x0117, r27
     246:	89 2b       	or	r24, r25
     248:	8a 2b       	or	r24, r26
     24a:	8b 2b       	or	r24, r27
     24c:	89 f4       	brne	.+34     	; 0x270 <__vector_13+0x76>
     24e:	a4 df       	rcall	.-184    	; 0x198 <TimerISR>
     250:	80 91 00 01 	lds	r24, 0x0100
     254:	90 91 01 01 	lds	r25, 0x0101
     258:	a0 91 02 01 	lds	r26, 0x0102
     25c:	b0 91 03 01 	lds	r27, 0x0103
     260:	80 93 14 01 	sts	0x0114, r24
     264:	90 93 15 01 	sts	0x0115, r25
     268:	a0 93 16 01 	sts	0x0116, r26
     26c:	b0 93 17 01 	sts	0x0117, r27
     270:	ff 91       	pop	r31
     272:	ef 91       	pop	r30
     274:	bf 91       	pop	r27
     276:	af 91       	pop	r26
     278:	9f 91       	pop	r25
     27a:	8f 91       	pop	r24
     27c:	7f 91       	pop	r23
     27e:	6f 91       	pop	r22
     280:	5f 91       	pop	r21
     282:	4f 91       	pop	r20
     284:	3f 91       	pop	r19
     286:	2f 91       	pop	r18
     288:	0f 90       	pop	r0
     28a:	0b be       	out	0x3b, r0	; 59
     28c:	0f 90       	pop	r0
     28e:	0f be       	out	0x3f, r0	; 63
     290:	0f 90       	pop	r0
     292:	1f 90       	pop	r1
     294:	18 95       	reti

00000296 <clearSingleMatrix>:
     296:	cf 93       	push	r28
     298:	df 93       	push	r29
     29a:	cd b7       	in	r28, 0x3d	; 61
     29c:	de b7       	in	r29, 0x3e	; 62
     29e:	60 97       	sbiw	r28, 0x10	; 16
     2a0:	0f b6       	in	r0, 0x3f	; 63
     2a2:	f8 94       	cli
     2a4:	de bf       	out	0x3e, r29	; 62
     2a6:	0f be       	out	0x3f, r0	; 63
     2a8:	cd bf       	out	0x3d, r28	; 61
     2aa:	29 87       	std	Y+9, r18	; 0x09
     2ac:	3a 87       	std	Y+10, r19	; 0x0a
     2ae:	4b 87       	std	Y+11, r20	; 0x0b
     2b0:	5c 87       	std	Y+12, r21	; 0x0c
     2b2:	6d 87       	std	Y+13, r22	; 0x0d
     2b4:	7e 87       	std	Y+14, r23	; 0x0e
     2b6:	8f 87       	std	Y+15, r24	; 0x0f
     2b8:	98 8b       	std	Y+16, r25	; 0x10
     2ba:	fe 01       	movw	r30, r28
     2bc:	39 96       	adiw	r30, 0x09	; 9
     2be:	9e 01       	movw	r18, r28
     2c0:	2f 5e       	subi	r18, 0xEF	; 239
     2c2:	3f 4f       	sbci	r19, 0xFF	; 255
     2c4:	8f ef       	ldi	r24, 0xFF	; 255
     2c6:	81 93       	st	Z+, r24
     2c8:	e2 17       	cp	r30, r18
     2ca:	f3 07       	cpc	r31, r19
     2cc:	e1 f7       	brne	.-8      	; 0x2c6 <clearSingleMatrix+0x30>
     2ce:	88 e0       	ldi	r24, 0x08	; 8
     2d0:	fe 01       	movw	r30, r28
     2d2:	39 96       	adiw	r30, 0x09	; 9
     2d4:	de 01       	movw	r26, r28
     2d6:	11 96       	adiw	r26, 0x01	; 1
     2d8:	01 90       	ld	r0, Z+
     2da:	0d 92       	st	X+, r0
     2dc:	8a 95       	dec	r24
     2de:	e1 f7       	brne	.-8      	; 0x2d8 <clearSingleMatrix+0x42>
     2e0:	29 81       	ldd	r18, Y+1	; 0x01
     2e2:	3a 81       	ldd	r19, Y+2	; 0x02
     2e4:	4b 81       	ldd	r20, Y+3	; 0x03
     2e6:	5c 81       	ldd	r21, Y+4	; 0x04
     2e8:	6d 81       	ldd	r22, Y+5	; 0x05
     2ea:	7e 81       	ldd	r23, Y+6	; 0x06
     2ec:	8f 81       	ldd	r24, Y+7	; 0x07
     2ee:	98 85       	ldd	r25, Y+8	; 0x08
     2f0:	60 96       	adiw	r28, 0x10	; 16
     2f2:	0f b6       	in	r0, 0x3f	; 63
     2f4:	f8 94       	cli
     2f6:	de bf       	out	0x3e, r29	; 62
     2f8:	0f be       	out	0x3f, r0	; 63
     2fa:	cd bf       	out	0x3d, r28	; 61
     2fc:	df 91       	pop	r29
     2fe:	cf 91       	pop	r28
     300:	08 95       	ret

00000302 <initSingleUserMatrix>:
     302:	ef 92       	push	r14
     304:	ff 92       	push	r15
     306:	0f 93       	push	r16
     308:	1f 93       	push	r17
     30a:	cf 93       	push	r28
     30c:	df 93       	push	r29
     30e:	cd b7       	in	r28, 0x3d	; 61
     310:	de b7       	in	r29, 0x3e	; 62
     312:	2a 97       	sbiw	r28, 0x0a	; 10
     314:	0f b6       	in	r0, 0x3f	; 63
     316:	f8 94       	cli
     318:	de bf       	out	0x3e, r29	; 62
     31a:	0f be       	out	0x3f, r0	; 63
     31c:	cd bf       	out	0x3d, r28	; 61
     31e:	bc 01       	movw	r22, r24
     320:	e9 82       	std	Y+1, r14	; 0x01
     322:	fa 82       	std	Y+2, r15	; 0x02
     324:	0b 83       	std	Y+3, r16	; 0x03
     326:	1c 83       	std	Y+4, r17	; 0x04
     328:	2d 83       	std	Y+5, r18	; 0x05
     32a:	3e 83       	std	Y+6, r19	; 0x06
     32c:	4f 83       	std	Y+7, r20	; 0x07
     32e:	58 87       	std	Y+8, r21	; 0x08
     330:	fe 01       	movw	r30, r28
     332:	31 96       	adiw	r30, 0x01	; 1
     334:	9e 01       	movw	r18, r28
     336:	27 5f       	subi	r18, 0xF7	; 247
     338:	3f 4f       	sbci	r19, 0xFF	; 255
     33a:	9f ef       	ldi	r25, 0xFF	; 255
     33c:	91 93       	st	Z+, r25
     33e:	e2 17       	cp	r30, r18
     340:	f3 07       	cpc	r31, r19
     342:	e1 f7       	brne	.-8      	; 0x33c <initSingleUserMatrix+0x3a>
     344:	99 81       	ldd	r25, Y+1	; 0x01
     346:	97 7f       	andi	r25, 0xF7	; 247
     348:	99 83       	std	Y+1, r25	; 0x01
     34a:	19 86       	std	Y+9, r1	; 0x09
     34c:	83 e0       	ldi	r24, 0x03	; 3
     34e:	8a 87       	std	Y+10, r24	; 0x0a
     350:	8a e0       	ldi	r24, 0x0A	; 10
     352:	fe 01       	movw	r30, r28
     354:	31 96       	adiw	r30, 0x01	; 1
     356:	db 01       	movw	r26, r22
     358:	01 90       	ld	r0, Z+
     35a:	0d 92       	st	X+, r0
     35c:	8a 95       	dec	r24
     35e:	e1 f7       	brne	.-8      	; 0x358 <initSingleUserMatrix+0x56>
     360:	cb 01       	movw	r24, r22
     362:	2a 96       	adiw	r28, 0x0a	; 10
     364:	0f b6       	in	r0, 0x3f	; 63
     366:	f8 94       	cli
     368:	de bf       	out	0x3e, r29	; 62
     36a:	0f be       	out	0x3f, r0	; 63
     36c:	cd bf       	out	0x3d, r28	; 61
     36e:	df 91       	pop	r29
     370:	cf 91       	pop	r28
     372:	1f 91       	pop	r17
     374:	0f 91       	pop	r16
     376:	ff 90       	pop	r15
     378:	ef 90       	pop	r14
     37a:	08 95       	ret

0000037c <shiftSR>:
     37c:	85 b9       	out	0x05, r24	; 5
     37e:	29 9a       	sbi	0x05, 1	; 5
     380:	15 b8       	out	0x05, r1	; 5
     382:	08 95       	ret

00000384 <shiftWhole>:
     384:	20 e0       	ldi	r18, 0x00	; 0
     386:	30 e0       	ldi	r19, 0x00	; 0
     388:	e1 e0       	ldi	r30, 0x01	; 1
     38a:	f0 e0       	ldi	r31, 0x00	; 0
     38c:	71 e0       	ldi	r23, 0x01	; 1
     38e:	60 e0       	ldi	r22, 0x00	; 0
     390:	af 01       	movw	r20, r30
     392:	02 2e       	mov	r0, r18
     394:	02 c0       	rjmp	.+4      	; 0x39a <shiftWhole+0x16>
     396:	44 0f       	add	r20, r20
     398:	55 1f       	adc	r21, r21
     39a:	0a 94       	dec	r0
     39c:	e2 f7       	brpl	.-8      	; 0x396 <shiftWhole+0x12>
     39e:	48 23       	and	r20, r24
     3a0:	97 2f       	mov	r25, r23
     3a2:	09 f4       	brne	.+2      	; 0x3a6 <shiftWhole+0x22>
     3a4:	96 2f       	mov	r25, r22
     3a6:	95 b9       	out	0x05, r25	; 5
     3a8:	29 9a       	sbi	0x05, 1	; 5
     3aa:	65 b9       	out	0x05, r22	; 5
     3ac:	2f 5f       	subi	r18, 0xFF	; 255
     3ae:	3f 4f       	sbci	r19, 0xFF	; 255
     3b0:	28 30       	cpi	r18, 0x08	; 8
     3b2:	31 05       	cpc	r19, r1
     3b4:	69 f7       	brne	.-38     	; 0x390 <shiftWhole+0xc>
     3b6:	84 e0       	ldi	r24, 0x04	; 4
     3b8:	85 b9       	out	0x05, r24	; 5
     3ba:	08 95       	ret

000003bc <clearSR>:
     3bc:	cf 93       	push	r28
     3be:	c8 e0       	ldi	r28, 0x08	; 8
     3c0:	81 e0       	ldi	r24, 0x01	; 1
     3c2:	dc df       	rcall	.-72     	; 0x37c <shiftSR>
     3c4:	c1 50       	subi	r28, 0x01	; 1
     3c6:	e1 f7       	brne	.-8      	; 0x3c0 <clearSR+0x4>
     3c8:	84 e0       	ldi	r24, 0x04	; 4
     3ca:	85 b9       	out	0x05, r24	; 5
     3cc:	cf 91       	pop	r28
     3ce:	08 95       	ret

000003d0 <d3_clearSR>:
     3d0:	f5 df       	rcall	.-22     	; 0x3bc <clearSR>
     3d2:	f4 df       	rcall	.-24     	; 0x3bc <clearSR>
     3d4:	f3 cf       	rjmp	.-26     	; 0x3bc <clearSR>
     3d6:	08 95       	ret

000003d8 <d3_setRowMatrixColor>:
     3d8:	0f 93       	push	r16
     3da:	1f 93       	push	r17
     3dc:	cf 93       	push	r28
     3de:	df 93       	push	r29
     3e0:	18 2f       	mov	r17, r24
     3e2:	c9 2f       	mov	r28, r25
     3e4:	06 2f       	mov	r16, r22
     3e6:	d4 2f       	mov	r29, r20
     3e8:	f3 df       	rcall	.-26     	; 0x3d0 <d3_clearSR>
     3ea:	51 e0       	ldi	r21, 0x01	; 1
     3ec:	01 c0       	rjmp	.+2      	; 0x3f0 <d3_setRowMatrixColor+0x18>
     3ee:	55 0f       	add	r21, r21
     3f0:	0a 95       	dec	r16
     3f2:	ea f7       	brpl	.-6      	; 0x3ee <d3_setRowMatrixColor+0x16>
     3f4:	e1 2f       	mov	r30, r17
     3f6:	fc 2f       	mov	r31, r28
     3f8:	20 e0       	ldi	r18, 0x00	; 0
     3fa:	30 e0       	ldi	r19, 0x00	; 0
     3fc:	c0 e0       	ldi	r28, 0x00	; 0
     3fe:	a1 e0       	ldi	r26, 0x01	; 1
     400:	b0 e0       	ldi	r27, 0x00	; 0
     402:	91 91       	ld	r25, Z+
     404:	95 23       	and	r25, r21
     406:	49 f0       	breq	.+18     	; 0x41a <d3_setRowMatrixColor+0x42>
     408:	cd 01       	movw	r24, r26
     40a:	02 2e       	mov	r0, r18
     40c:	02 c0       	rjmp	.+4      	; 0x412 <d3_setRowMatrixColor+0x3a>
     40e:	88 0f       	add	r24, r24
     410:	99 1f       	adc	r25, r25
     412:	0a 94       	dec	r0
     414:	e2 f7       	brpl	.-8      	; 0x40e <d3_setRowMatrixColor+0x36>
     416:	c8 2b       	or	r28, r24
     418:	09 c0       	rjmp	.+18     	; 0x42c <d3_setRowMatrixColor+0x54>
     41a:	bd 01       	movw	r22, r26
     41c:	02 2e       	mov	r0, r18
     41e:	02 c0       	rjmp	.+4      	; 0x424 <d3_setRowMatrixColor+0x4c>
     420:	66 0f       	add	r22, r22
     422:	77 1f       	adc	r23, r23
     424:	0a 94       	dec	r0
     426:	e2 f7       	brpl	.-8      	; 0x420 <d3_setRowMatrixColor+0x48>
     428:	60 95       	com	r22
     42a:	c6 23       	and	r28, r22
     42c:	2f 5f       	subi	r18, 0xFF	; 255
     42e:	3f 4f       	sbci	r19, 0xFF	; 255
     430:	28 30       	cpi	r18, 0x08	; 8
     432:	31 05       	cpc	r19, r1
     434:	31 f7       	brne	.-52     	; 0x402 <d3_setRowMatrixColor+0x2a>
     436:	d1 30       	cpi	r29, 0x01	; 1
     438:	71 f0       	breq	.+28     	; 0x456 <d3_setRowMatrixColor+0x7e>
     43a:	18 f0       	brcs	.+6      	; 0x442 <d3_setRowMatrixColor+0x6a>
     43c:	d2 30       	cpi	r29, 0x02	; 2
     43e:	31 f0       	breq	.+12     	; 0x44c <d3_setRowMatrixColor+0x74>
     440:	0e c0       	rjmp	.+28     	; 0x45e <d3_setRowMatrixColor+0x86>
     442:	bc df       	rcall	.-136    	; 0x3bc <clearSR>
     444:	8c 2f       	mov	r24, r28
     446:	9e df       	rcall	.-196    	; 0x384 <shiftWhole>
     448:	b9 df       	rcall	.-142    	; 0x3bc <clearSR>
     44a:	09 c0       	rjmp	.+18     	; 0x45e <d3_setRowMatrixColor+0x86>
     44c:	8c 2f       	mov	r24, r28
     44e:	9a df       	rcall	.-204    	; 0x384 <shiftWhole>
     450:	b5 df       	rcall	.-150    	; 0x3bc <clearSR>
     452:	b4 df       	rcall	.-152    	; 0x3bc <clearSR>
     454:	04 c0       	rjmp	.+8      	; 0x45e <d3_setRowMatrixColor+0x86>
     456:	b2 df       	rcall	.-156    	; 0x3bc <clearSR>
     458:	b1 df       	rcall	.-158    	; 0x3bc <clearSR>
     45a:	8c 2f       	mov	r24, r28
     45c:	93 df       	rcall	.-218    	; 0x384 <shiftWhole>
     45e:	df 91       	pop	r29
     460:	cf 91       	pop	r28
     462:	1f 91       	pop	r17
     464:	0f 91       	pop	r16
     466:	08 95       	ret

00000468 <d3_setMatrixColor>:
     468:	cf 92       	push	r12
     46a:	df 92       	push	r13
     46c:	ff 92       	push	r15
     46e:	0f 93       	push	r16
     470:	1f 93       	push	r17
     472:	cf 93       	push	r28
     474:	df 93       	push	r29
     476:	6c 01       	movw	r12, r24
     478:	f6 2e       	mov	r15, r22
     47a:	c0 e0       	ldi	r28, 0x00	; 0
     47c:	d0 e0       	ldi	r29, 0x00	; 0
     47e:	01 e0       	ldi	r16, 0x01	; 1
     480:	10 e0       	ldi	r17, 0x00	; 0
     482:	98 01       	movw	r18, r16
     484:	0c 2e       	mov	r0, r28
     486:	02 c0       	rjmp	.+4      	; 0x48c <d3_setMatrixColor+0x24>
     488:	22 0f       	add	r18, r18
     48a:	33 1f       	adc	r19, r19
     48c:	0a 94       	dec	r0
     48e:	e2 f7       	brpl	.-8      	; 0x488 <d3_setMatrixColor+0x20>
     490:	28 b9       	out	0x08, r18	; 8
     492:	4f 2d       	mov	r20, r15
     494:	6c 2f       	mov	r22, r28
     496:	c6 01       	movw	r24, r12
     498:	9f df       	rcall	.-194    	; 0x3d8 <d3_setRowMatrixColor>
     49a:	8f e8       	ldi	r24, 0x8F	; 143
     49c:	91 e0       	ldi	r25, 0x01	; 1
     49e:	01 97       	sbiw	r24, 0x01	; 1
     4a0:	f1 f7       	brne	.-4      	; 0x49e <d3_setMatrixColor+0x36>
     4a2:	00 c0       	rjmp	.+0      	; 0x4a4 <d3_setMatrixColor+0x3c>
     4a4:	00 00       	nop
     4a6:	94 df       	rcall	.-216    	; 0x3d0 <d3_clearSR>
     4a8:	21 96       	adiw	r28, 0x01	; 1
     4aa:	c8 30       	cpi	r28, 0x08	; 8
     4ac:	d1 05       	cpc	r29, r1
     4ae:	49 f7       	brne	.-46     	; 0x482 <d3_setMatrixColor+0x1a>
     4b0:	df 91       	pop	r29
     4b2:	cf 91       	pop	r28
     4b4:	1f 91       	pop	r17
     4b6:	0f 91       	pop	r16
     4b8:	ff 90       	pop	r15
     4ba:	df 90       	pop	r13
     4bc:	cf 90       	pop	r12
     4be:	08 95       	ret

000004c0 <initExplosions>:
     4c0:	cf 93       	push	r28
     4c2:	df 93       	push	r29
     4c4:	cd b7       	in	r28, 0x3d	; 61
     4c6:	de b7       	in	r29, 0x3e	; 62
     4c8:	9c 01       	movw	r18, r24
     4ca:	92 e1       	ldi	r25, 0x12	; 18
     4cc:	91 50       	subi	r25, 0x01	; 1
     4ce:	f1 f7       	brne	.-4      	; 0x4cc <initExplosions+0xc>
     4d0:	c7 54       	subi	r28, 0x47	; 71
     4d2:	df 4f       	sbci	r29, 0xFF	; 255
     4d4:	18 82       	st	Y, r1
     4d6:	c9 5b       	subi	r28, 0xB9	; 185
     4d8:	d0 40       	sbci	r29, 0x00	; 0
     4da:	c6 54       	subi	r28, 0x46	; 70
     4dc:	df 4f       	sbci	r29, 0xFF	; 255
     4de:	18 82       	st	Y, r1
     4e0:	ca 5b       	subi	r28, 0xBA	; 186
     4e2:	d0 40       	sbci	r29, 0x00	; 0
     4e4:	86 eb       	ldi	r24, 0xB6	; 182
     4e6:	fe 01       	movw	r30, r28
     4e8:	35 96       	adiw	r30, 0x05	; 5
     4ea:	d9 01       	movw	r26, r18
     4ec:	01 90       	ld	r0, Z+
     4ee:	0d 92       	st	X+, r0
     4f0:	8a 95       	dec	r24
     4f2:	e1 f7       	brne	.-8      	; 0x4ec <initExplosions+0x2c>
     4f4:	c9 01       	movw	r24, r18
     4f6:	df 91       	pop	r29
     4f8:	cf 91       	pop	r28
     4fa:	08 95       	ret

000004fc <initUSART>:
     4fc:	81 30       	cpi	r24, 0x01	; 1
     4fe:	81 f0       	breq	.+32     	; 0x520 <initUSART+0x24>
     500:	e1 ec       	ldi	r30, 0xC1	; 193
     502:	f0 e0       	ldi	r31, 0x00	; 0
     504:	80 81       	ld	r24, Z
     506:	88 61       	ori	r24, 0x18	; 24
     508:	80 83       	st	Z, r24
     50a:	e2 ec       	ldi	r30, 0xC2	; 194
     50c:	f0 e0       	ldi	r31, 0x00	; 0
     50e:	80 81       	ld	r24, Z
     510:	86 60       	ori	r24, 0x06	; 6
     512:	80 83       	st	Z, r24
     514:	83 e3       	ldi	r24, 0x33	; 51
     516:	80 93 c4 00 	sts	0x00C4, r24
     51a:	10 92 c5 00 	sts	0x00C5, r1
     51e:	08 95       	ret
     520:	e9 ec       	ldi	r30, 0xC9	; 201
     522:	f0 e0       	ldi	r31, 0x00	; 0
     524:	80 81       	ld	r24, Z
     526:	88 61       	ori	r24, 0x18	; 24
     528:	80 83       	st	Z, r24
     52a:	ea ec       	ldi	r30, 0xCA	; 202
     52c:	f0 e0       	ldi	r31, 0x00	; 0
     52e:	80 81       	ld	r24, Z
     530:	86 60       	ori	r24, 0x06	; 6
     532:	80 83       	st	Z, r24
     534:	83 e3       	ldi	r24, 0x33	; 51
     536:	80 93 cc 00 	sts	0x00CC, r24
     53a:	10 92 cd 00 	sts	0x00CD, r1
     53e:	08 95       	ret

00000540 <USART_Send>:
     540:	61 30       	cpi	r22, 0x01	; 1
     542:	41 f0       	breq	.+16     	; 0x554 <USART_Send+0x14>
     544:	e0 ec       	ldi	r30, 0xC0	; 192
     546:	f0 e0       	ldi	r31, 0x00	; 0
     548:	90 81       	ld	r25, Z
     54a:	95 ff       	sbrs	r25, 5
     54c:	fd cf       	rjmp	.-6      	; 0x548 <USART_Send+0x8>
     54e:	80 93 c6 00 	sts	0x00C6, r24
     552:	08 95       	ret
     554:	e8 ec       	ldi	r30, 0xC8	; 200
     556:	f0 e0       	ldi	r31, 0x00	; 0
     558:	90 81       	ld	r25, Z
     55a:	95 ff       	sbrs	r25, 5
     55c:	fd cf       	rjmp	.-6      	; 0x558 <USART_Send+0x18>
     55e:	80 93 ce 00 	sts	0x00CE, r24
     562:	08 95       	ret

00000564 <USART_Receive>:
     564:	81 30       	cpi	r24, 0x01	; 1
     566:	41 f0       	breq	.+16     	; 0x578 <USART_Receive+0x14>
     568:	e0 ec       	ldi	r30, 0xC0	; 192
     56a:	f0 e0       	ldi	r31, 0x00	; 0
     56c:	80 81       	ld	r24, Z
     56e:	88 23       	and	r24, r24
     570:	ec f7       	brge	.-6      	; 0x56c <USART_Receive+0x8>
     572:	80 91 c6 00 	lds	r24, 0x00C6
     576:	08 95       	ret
     578:	e8 ec       	ldi	r30, 0xC8	; 200
     57a:	f0 e0       	ldi	r31, 0x00	; 0
     57c:	80 81       	ld	r24, Z
     57e:	88 23       	and	r24, r24
     580:	ec f7       	brge	.-6      	; 0x57c <USART_Receive+0x18>
     582:	80 91 ce 00 	lds	r24, 0x00CE
     586:	08 95       	ret

00000588 <DeathTick>:
     588:	ef 92       	push	r14
     58a:	ff 92       	push	r15
     58c:	0f 93       	push	r16
     58e:	1f 93       	push	r17
     590:	cf 93       	push	r28
     592:	df 93       	push	r29
     594:	cd b7       	in	r28, 0x3d	; 61
     596:	de b7       	in	r29, 0x3e	; 62
     598:	2a 97       	sbiw	r28, 0x0a	; 10
     59a:	0f b6       	in	r0, 0x3f	; 63
     59c:	f8 94       	cli
     59e:	de bf       	out	0x3e, r29	; 62
     5a0:	0f be       	out	0x3f, r0	; 63
     5a2:	cd bf       	out	0x3d, r28	; 61
     5a4:	80 91 0f 01 	lds	r24, 0x010F
     5a8:	81 11       	cpse	r24, r1
     5aa:	40 c0       	rjmp	.+128    	; 0x62c <DeathTick+0xa4>
     5ac:	ee ee       	ldi	r30, 0xEE	; 238
     5ae:	f1 e0       	ldi	r31, 0x01	; 1
     5b0:	81 e0       	ldi	r24, 0x01	; 1
     5b2:	90 e0       	ldi	r25, 0x00	; 0
     5b4:	01 84       	ldd	r0, Z+9	; 0x09
     5b6:	02 c0       	rjmp	.+4      	; 0x5bc <DeathTick+0x34>
     5b8:	88 0f       	add	r24, r24
     5ba:	99 1f       	adc	r25, r25
     5bc:	0a 94       	dec	r0
     5be:	e2 f7       	brpl	.-8      	; 0x5b8 <DeathTick+0x30>
     5c0:	90 91 ed 01 	lds	r25, 0x01ED
     5c4:	e0 85       	ldd	r30, Z+8	; 0x08
     5c6:	f0 e0       	ldi	r31, 0x00	; 0
     5c8:	28 e0       	ldi	r18, 0x08	; 8
     5ca:	92 9f       	mul	r25, r18
     5cc:	e0 0d       	add	r30, r0
     5ce:	f1 1d       	adc	r31, r1
     5d0:	11 24       	eor	r1, r1
     5d2:	e8 5c       	subi	r30, 0xC8	; 200
     5d4:	fe 4f       	sbci	r31, 0xFE	; 254
     5d6:	90 81       	ld	r25, Z
     5d8:	89 23       	and	r24, r25
     5da:	41 f5       	brne	.+80     	; 0x62c <DeathTick+0xa4>
     5dc:	e0 90 ee 01 	lds	r14, 0x01EE
     5e0:	f0 90 ef 01 	lds	r15, 0x01EF
     5e4:	00 91 f0 01 	lds	r16, 0x01F0
     5e8:	10 91 f1 01 	lds	r17, 0x01F1
     5ec:	20 91 f2 01 	lds	r18, 0x01F2
     5f0:	30 91 f3 01 	lds	r19, 0x01F3
     5f4:	40 91 f4 01 	lds	r20, 0x01F4
     5f8:	50 91 f5 01 	lds	r21, 0x01F5
     5fc:	60 91 f6 01 	lds	r22, 0x01F6
     600:	70 91 f7 01 	lds	r23, 0x01F7
     604:	ce 01       	movw	r24, r28
     606:	01 96       	adiw	r24, 0x01	; 1
     608:	7c de       	rcall	.-776    	; 0x302 <initSingleUserMatrix>
     60a:	8a e0       	ldi	r24, 0x0A	; 10
     60c:	fe 01       	movw	r30, r28
     60e:	31 96       	adiw	r30, 0x01	; 1
     610:	ae ee       	ldi	r26, 0xEE	; 238
     612:	b1 e0       	ldi	r27, 0x01	; 1
     614:	01 90       	ld	r0, Z+
     616:	0d 92       	st	X+, r0
     618:	8a 95       	dec	r24
     61a:	e1 f7       	brne	.-8      	; 0x614 <DeathTick+0x8c>
     61c:	e0 ec       	ldi	r30, 0xC0	; 192
     61e:	f0 e0       	ldi	r31, 0x00	; 0
     620:	80 81       	ld	r24, Z
     622:	85 ff       	sbrs	r24, 5
     624:	fd cf       	rjmp	.-6      	; 0x620 <DeathTick+0x98>
     626:	60 e0       	ldi	r22, 0x00	; 0
     628:	80 e0       	ldi	r24, 0x00	; 0
     62a:	8a df       	rcall	.-236    	; 0x540 <USART_Send>
     62c:	2a 96       	adiw	r28, 0x0a	; 10
     62e:	0f b6       	in	r0, 0x3f	; 63
     630:	f8 94       	cli
     632:	de bf       	out	0x3e, r29	; 62
     634:	0f be       	out	0x3f, r0	; 63
     636:	cd bf       	out	0x3d, r28	; 61
     638:	df 91       	pop	r29
     63a:	cf 91       	pop	r28
     63c:	1f 91       	pop	r17
     63e:	0f 91       	pop	r16
     640:	ff 90       	pop	r15
     642:	ef 90       	pop	r14
     644:	08 95       	ret

00000646 <ExpTick>:
     646:	cf 92       	push	r12
     648:	df 92       	push	r13
     64a:	ef 92       	push	r14
     64c:	ff 92       	push	r15
     64e:	0f 93       	push	r16
     650:	1f 93       	push	r17
     652:	cf 93       	push	r28
     654:	df 93       	push	r29
     656:	cd b7       	in	r28, 0x3d	; 61
     658:	de b7       	in	r29, 0x3e	; 62
     65a:	8c 01       	movw	r16, r24
     65c:	c1 54       	subi	r28, 0x41	; 65
     65e:	df 4f       	sbci	r29, 0xFF	; 255
     660:	88 81       	ld	r24, Y
     662:	cf 5b       	subi	r28, 0xBF	; 191
     664:	d0 40       	sbci	r29, 0x00	; 0
     666:	81 11       	cpse	r24, r1
     668:	09 c0       	rjmp	.+18     	; 0x67c <ExpTick+0x36>
     66a:	86 eb       	ldi	r24, 0xB6	; 182
     66c:	fe 01       	movw	r30, r28
     66e:	3b 96       	adiw	r30, 0x0b	; 11
     670:	d8 01       	movw	r26, r16
     672:	01 90       	ld	r0, Z+
     674:	0d 92       	st	X+, r0
     676:	8a 95       	dec	r24
     678:	e1 f7       	brne	.-8      	; 0x672 <ExpTick+0x2c>
     67a:	a6 c0       	rjmp	.+332    	; 0x7c8 <ExpTick+0x182>
     67c:	c0 54       	subi	r28, 0x40	; 64
     67e:	df 4f       	sbci	r29, 0xFF	; 255
     680:	98 81       	ld	r25, Y
     682:	c0 5c       	subi	r28, 0xC0	; 192
     684:	d0 40       	sbci	r29, 0x00	; 0
     686:	98 17       	cp	r25, r24
     688:	28 f0       	brcs	.+10     	; 0x694 <ExpTick+0x4e>
     68a:	c0 54       	subi	r28, 0x40	; 64
     68c:	df 4f       	sbci	r29, 0xFF	; 255
     68e:	18 82       	st	Y, r1
     690:	c0 5c       	subi	r28, 0xC0	; 192
     692:	d0 40       	sbci	r29, 0x00	; 0
     694:	80 91 0f 01 	lds	r24, 0x010F
     698:	81 11       	cpse	r24, r1
     69a:	12 c0       	rjmp	.+36     	; 0x6c0 <ExpTick+0x7a>
     69c:	c0 54       	subi	r28, 0x40	; 64
     69e:	df 4f       	sbci	r29, 0xFF	; 255
     6a0:	88 81       	ld	r24, Y
     6a2:	c0 5c       	subi	r28, 0xC0	; 192
     6a4:	d0 40       	sbci	r29, 0x00	; 0
     6a6:	60 e0       	ldi	r22, 0x00	; 0
     6a8:	2b e0       	ldi	r18, 0x0B	; 11
     6aa:	30 e0       	ldi	r19, 0x00	; 0
     6ac:	2c 0f       	add	r18, r28
     6ae:	3d 1f       	adc	r19, r29
     6b0:	48 e0       	ldi	r20, 0x08	; 8
     6b2:	84 9f       	mul	r24, r20
     6b4:	20 0d       	add	r18, r0
     6b6:	31 1d       	adc	r19, r1
     6b8:	11 24       	eor	r1, r1
     6ba:	c9 01       	movw	r24, r18
     6bc:	d5 de       	rcall	.-598    	; 0x468 <d3_setMatrixColor>
     6be:	07 c0       	rjmp	.+14     	; 0x6ce <ExpTick+0x88>
     6c0:	81 30       	cpi	r24, 0x01	; 1
     6c2:	09 f0       	breq	.+2      	; 0x6c6 <ExpTick+0x80>
     6c4:	79 c0       	rjmp	.+242    	; 0x7b8 <ExpTick+0x172>
     6c6:	60 e0       	ldi	r22, 0x00	; 0
     6c8:	87 e2       	ldi	r24, 0x27	; 39
     6ca:	91 e0       	ldi	r25, 0x01	; 1
     6cc:	cd de       	rcall	.-614    	; 0x468 <d3_setMatrixColor>
     6ce:	80 91 0f 01 	lds	r24, 0x010F
     6d2:	81 11       	cpse	r24, r1
     6d4:	3c c0       	rjmp	.+120    	; 0x74e <ExpTick+0x108>
     6d6:	c0 54       	subi	r28, 0x40	; 64
     6d8:	df 4f       	sbci	r29, 0xFF	; 255
     6da:	88 81       	ld	r24, Y
     6dc:	c0 5c       	subi	r28, 0xC0	; 192
     6de:	d0 40       	sbci	r29, 0x00	; 0
     6e0:	ed ea       	ldi	r30, 0xAD	; 173
     6e2:	f0 e0       	ldi	r31, 0x00	; 0
     6e4:	ec 0f       	add	r30, r28
     6e6:	fd 1f       	adc	r31, r29
     6e8:	e8 0f       	add	r30, r24
     6ea:	f1 1d       	adc	r31, r1
     6ec:	20 81       	ld	r18, Z
     6ee:	30 e0       	ldi	r19, 0x00	; 0
     6f0:	a9 01       	movw	r20, r18
     6f2:	44 0f       	add	r20, r20
     6f4:	55 1f       	adc	r21, r21
     6f6:	22 0f       	add	r18, r18
     6f8:	33 1f       	adc	r19, r19
     6fa:	22 0f       	add	r18, r18
     6fc:	33 1f       	adc	r19, r19
     6fe:	22 0f       	add	r18, r18
     700:	33 1f       	adc	r19, r19
     702:	42 0f       	add	r20, r18
     704:	53 1f       	adc	r21, r19
     706:	05 2e       	mov	r0, r21
     708:	00 0c       	add	r0, r0
     70a:	66 0b       	sbc	r22, r22
     70c:	77 0b       	sbc	r23, r23
     70e:	c0 90 10 01 	lds	r12, 0x0110
     712:	d0 90 11 01 	lds	r13, 0x0111
     716:	e0 90 12 01 	lds	r14, 0x0112
     71a:	f0 90 13 01 	lds	r15, 0x0113
     71e:	c4 16       	cp	r12, r20
     720:	d5 06       	cpc	r13, r21
     722:	e6 06       	cpc	r14, r22
     724:	f7 06       	cpc	r15, r23
     726:	08 f4       	brcc	.+2      	; 0x72a <ExpTick+0xe4>
     728:	47 c0       	rjmp	.+142    	; 0x7b8 <ExpTick+0x172>
     72a:	91 e0       	ldi	r25, 0x01	; 1
     72c:	90 93 0f 01 	sts	0x010F, r25
     730:	8f 5f       	subi	r24, 0xFF	; 255
     732:	c0 54       	subi	r28, 0x40	; 64
     734:	df 4f       	sbci	r29, 0xFF	; 255
     736:	88 83       	st	Y, r24
     738:	c0 5c       	subi	r28, 0xC0	; 192
     73a:	d0 40       	sbci	r29, 0x00	; 0
     73c:	10 92 10 01 	sts	0x0110, r1
     740:	10 92 11 01 	sts	0x0111, r1
     744:	10 92 12 01 	sts	0x0112, r1
     748:	10 92 13 01 	sts	0x0113, r1
     74c:	35 c0       	rjmp	.+106    	; 0x7b8 <ExpTick+0x172>
     74e:	81 30       	cpi	r24, 0x01	; 1
     750:	99 f5       	brne	.+102    	; 0x7b8 <ExpTick+0x172>
     752:	c0 54       	subi	r28, 0x40	; 64
     754:	df 4f       	sbci	r29, 0xFF	; 255
     756:	88 81       	ld	r24, Y
     758:	c0 5c       	subi	r28, 0xC0	; 192
     75a:	d0 40       	sbci	r29, 0x00	; 0
     75c:	eb e9       	ldi	r30, 0x9B	; 155
     75e:	f0 e0       	ldi	r31, 0x00	; 0
     760:	ec 0f       	add	r30, r28
     762:	fd 1f       	adc	r31, r29
     764:	e8 0f       	add	r30, r24
     766:	f1 1d       	adc	r31, r1
     768:	20 81       	ld	r18, Z
     76a:	30 e0       	ldi	r19, 0x00	; 0
     76c:	c9 01       	movw	r24, r18
     76e:	88 0f       	add	r24, r24
     770:	99 1f       	adc	r25, r25
     772:	22 0f       	add	r18, r18
     774:	33 1f       	adc	r19, r19
     776:	22 0f       	add	r18, r18
     778:	33 1f       	adc	r19, r19
     77a:	22 0f       	add	r18, r18
     77c:	33 1f       	adc	r19, r19
     77e:	82 0f       	add	r24, r18
     780:	93 1f       	adc	r25, r19
     782:	09 2e       	mov	r0, r25
     784:	00 0c       	add	r0, r0
     786:	aa 0b       	sbc	r26, r26
     788:	bb 0b       	sbc	r27, r27
     78a:	40 91 10 01 	lds	r20, 0x0110
     78e:	50 91 11 01 	lds	r21, 0x0111
     792:	60 91 12 01 	lds	r22, 0x0112
     796:	70 91 13 01 	lds	r23, 0x0113
     79a:	48 17       	cp	r20, r24
     79c:	59 07       	cpc	r21, r25
     79e:	6a 07       	cpc	r22, r26
     7a0:	7b 07       	cpc	r23, r27
     7a2:	50 f0       	brcs	.+20     	; 0x7b8 <ExpTick+0x172>
     7a4:	10 92 0f 01 	sts	0x010F, r1
     7a8:	10 92 10 01 	sts	0x0110, r1
     7ac:	10 92 11 01 	sts	0x0111, r1
     7b0:	10 92 12 01 	sts	0x0112, r1
     7b4:	10 92 13 01 	sts	0x0113, r1
     7b8:	86 eb       	ldi	r24, 0xB6	; 182
     7ba:	fe 01       	movw	r30, r28
     7bc:	3b 96       	adiw	r30, 0x0b	; 11
     7be:	d8 01       	movw	r26, r16
     7c0:	01 90       	ld	r0, Z+
     7c2:	0d 92       	st	X+, r0
     7c4:	8a 95       	dec	r24
     7c6:	e1 f7       	brne	.-8      	; 0x7c0 <ExpTick+0x17a>
     7c8:	c8 01       	movw	r24, r16
     7ca:	df 91       	pop	r29
     7cc:	cf 91       	pop	r28
     7ce:	1f 91       	pop	r17
     7d0:	0f 91       	pop	r16
     7d2:	ff 90       	pop	r15
     7d4:	ef 90       	pop	r14
     7d6:	df 90       	pop	r13
     7d8:	cf 90       	pop	r12
     7da:	08 95       	ret

000007dc <initNumLevel>:
     7dc:	cf 93       	push	r28
     7de:	df 93       	push	r29
     7e0:	f9 99       	sbic	0x1f, 1	; 31
     7e2:	fe cf       	rjmp	.-4      	; 0x7e0 <initNumLevel+0x4>
     7e4:	c1 e0       	ldi	r28, 0x01	; 1
     7e6:	d0 e0       	ldi	r29, 0x00	; 0
     7e8:	07 c0       	rjmp	.+14     	; 0x7f8 <initNumLevel+0x1c>
     7ea:	90 91 0e 01 	lds	r25, 0x010E
     7ee:	9f 5f       	subi	r25, 0xFF	; 255
     7f0:	90 93 0e 01 	sts	0x010E, r25
     7f4:	c6 50       	subi	r28, 0x06	; 6
     7f6:	df 4f       	sbci	r29, 0xFF	; 255
     7f8:	ce 01       	movw	r24, r28
     7fa:	d1 d7       	rcall	.+4002   	; 0x179e <eeprom_read_byte>
     7fc:	81 11       	cpse	r24, r1
     7fe:	f5 cf       	rjmp	.-22     	; 0x7ea <initNumLevel+0xe>
     800:	df 91       	pop	r29
     802:	cf 91       	pop	r28
     804:	08 95       	ret

00000806 <displayCurrentPattern>:
     806:	80 91 0c 01 	lds	r24, 0x010C
     80a:	90 e0       	ldi	r25, 0x00	; 0
     80c:	88 0f       	add	r24, r24
     80e:	99 1f       	adc	r25, r25
     810:	88 0f       	add	r24, r24
     812:	99 1f       	adc	r25, r25
     814:	88 0f       	add	r24, r24
     816:	99 1f       	adc	r25, r25
     818:	60 e0       	ldi	r22, 0x00	; 0
     81a:	88 5c       	subi	r24, 0xC8	; 200
     81c:	9e 4f       	sbci	r25, 0xFE	; 254
     81e:	24 de       	rcall	.-952    	; 0x468 <d3_setMatrixColor>
     820:	61 e0       	ldi	r22, 0x01	; 1
     822:	88 ef       	ldi	r24, 0xF8	; 248
     824:	91 e0       	ldi	r25, 0x01	; 1
     826:	20 ce       	rjmp	.-960    	; 0x468 <d3_setMatrixColor>
     828:	08 95       	ret

0000082a <displayUser>:
     82a:	62 e0       	ldi	r22, 0x02	; 2
     82c:	8e ee       	ldi	r24, 0xEE	; 238
     82e:	91 e0       	ldi	r25, 0x01	; 1
     830:	1b ce       	rjmp	.-970    	; 0x468 <d3_setMatrixColor>
     832:	08 95       	ret

00000834 <setLevel>:
     834:	2f 92       	push	r2
     836:	3f 92       	push	r3
     838:	4f 92       	push	r4
     83a:	5f 92       	push	r5
     83c:	6f 92       	push	r6
     83e:	7f 92       	push	r7
     840:	8f 92       	push	r8
     842:	9f 92       	push	r9
     844:	af 92       	push	r10
     846:	bf 92       	push	r11
     848:	cf 92       	push	r12
     84a:	df 92       	push	r13
     84c:	ef 92       	push	r14
     84e:	ff 92       	push	r15
     850:	0f 93       	push	r16
     852:	1f 93       	push	r17
     854:	cf 93       	push	r28
     856:	df 93       	push	r29
     858:	cd b7       	in	r28, 0x3d	; 61
     85a:	de b7       	in	r29, 0x3e	; 62
     85c:	ca 52       	subi	r28, 0x2A	; 42
     85e:	d2 40       	sbci	r29, 0x02	; 2
     860:	0f b6       	in	r0, 0x3f	; 63
     862:	f8 94       	cli
     864:	de bf       	out	0x3e, r29	; 62
     866:	0f be       	out	0x3f, r0	; 63
     868:	cd bf       	out	0x3d, r28	; 61
     86a:	a0 90 0d 01 	lds	r10, 0x010D
     86e:	2a ef       	ldi	r18, 0xFA	; 250
     870:	a2 9e       	mul	r10, r18
     872:	50 01       	movw	r10, r0
     874:	11 24       	eor	r1, r1
     876:	f9 99       	sbic	0x1f, 1	; 31
     878:	fe cf       	rjmp	.-4      	; 0x876 <setLevel+0x42>
     87a:	c5 01       	movw	r24, r10
     87c:	01 96       	adiw	r24, 0x01	; 1
     87e:	8f d7       	rcall	.+3870   	; 0x179e <eeprom_read_byte>
     880:	28 2e       	mov	r2, r24
     882:	75 01       	movw	r14, r10
     884:	82 e0       	ldi	r24, 0x02	; 2
     886:	e8 0e       	add	r14, r24
     888:	f1 1c       	adc	r15, r1
     88a:	08 ef       	ldi	r16, 0xF8	; 248
     88c:	11 e0       	ldi	r17, 0x01	; 1
     88e:	0f 2e       	mov	r0, r31
     890:	f0 e0       	ldi	r31, 0x00	; 0
     892:	cf 2e       	mov	r12, r31
     894:	f2 e0       	ldi	r31, 0x02	; 2
     896:	df 2e       	mov	r13, r31
     898:	f0 2d       	mov	r31, r0
     89a:	f9 99       	sbic	0x1f, 1	; 31
     89c:	fe cf       	rjmp	.-4      	; 0x89a <setLevel+0x66>
     89e:	c7 01       	movw	r24, r14
     8a0:	7e d7       	rcall	.+3836   	; 0x179e <eeprom_read_byte>
     8a2:	f8 01       	movw	r30, r16
     8a4:	81 93       	st	Z+, r24
     8a6:	8f 01       	movw	r16, r30
     8a8:	ff ef       	ldi	r31, 0xFF	; 255
     8aa:	ef 1a       	sub	r14, r31
     8ac:	ff 0a       	sbc	r15, r31
     8ae:	0c 15       	cp	r16, r12
     8b0:	1d 05       	cpc	r17, r13
     8b2:	99 f7       	brne	.-26     	; 0x89a <setLevel+0x66>
     8b4:	8d b7       	in	r24, 0x3d	; 61
     8b6:	9e b7       	in	r25, 0x3e	; 62
     8b8:	86 5b       	subi	r24, 0xB6	; 182
     8ba:	91 09       	sbc	r25, r1
     8bc:	0f b6       	in	r0, 0x3f	; 63
     8be:	f8 94       	cli
     8c0:	9e bf       	out	0x3e, r25	; 62
     8c2:	0f be       	out	0x3f, r0	; 63
     8c4:	8d bf       	out	0x3d, r24	; 61
     8c6:	ad b7       	in	r26, 0x3d	; 61
     8c8:	be b7       	in	r27, 0x3e	; 62
     8ca:	11 96       	adiw	r26, 0x01	; 1
     8cc:	86 eb       	ldi	r24, 0xB6	; 182
     8ce:	e8 e3       	ldi	r30, 0x38	; 56
     8d0:	f1 e0       	ldi	r31, 0x01	; 1
     8d2:	01 90       	ld	r0, Z+
     8d4:	0d 92       	st	X+, r0
     8d6:	8a 95       	dec	r24
     8d8:	e1 f7       	brne	.-8      	; 0x8d2 <setLevel+0x9e>
     8da:	ce 01       	movw	r24, r28
     8dc:	8b 58       	subi	r24, 0x8B	; 139
     8de:	9e 4f       	sbci	r25, 0xFE	; 254
     8e0:	ef dd       	rcall	.-1058   	; 0x4c0 <initExplosions>
     8e2:	86 eb       	ldi	r24, 0xB6	; 182
     8e4:	fe 01       	movw	r30, r28
     8e6:	eb 58       	subi	r30, 0x8B	; 139
     8e8:	fe 4f       	sbci	r31, 0xFE	; 254
     8ea:	a8 e3       	ldi	r26, 0x38	; 56
     8ec:	b1 e0       	ldi	r27, 0x01	; 1
     8ee:	01 90       	ld	r0, Z+
     8f0:	0d 92       	st	X+, r0
     8f2:	8a 95       	dec	r24
     8f4:	e1 f7       	brne	.-8      	; 0x8ee <setLevel+0xba>
     8f6:	9b e0       	ldi	r25, 0x0B	; 11
     8f8:	a9 0e       	add	r10, r25
     8fa:	b1 1c       	adc	r11, r1
     8fc:	0f b6       	in	r0, 0x3f	; 63
     8fe:	f8 94       	cli
     900:	de bf       	out	0x3e, r29	; 62
     902:	0f be       	out	0x3f, r0	; 63
     904:	cd bf       	out	0x3d, r28	; 61
     906:	21 10       	cpse	r2, r1
     908:	6f c0       	rjmp	.+222    	; 0x9e8 <setLevel+0x1b4>
     90a:	8d c0       	rjmp	.+282    	; 0xa26 <setLevel+0x1f2>
     90c:	f9 99       	sbic	0x1f, 1	; 31
     90e:	fe cf       	rjmp	.-4      	; 0x90c <setLevel+0xd8>
     910:	c7 01       	movw	r24, r14
     912:	80 0f       	add	r24, r16
     914:	91 1f       	adc	r25, r17
     916:	43 d7       	rcall	.+3718   	; 0x179e <eeprom_read_byte>
     918:	f8 01       	movw	r30, r16
     91a:	81 93       	st	Z+, r24
     91c:	8f 01       	movw	r16, r30
     91e:	ec 15       	cp	r30, r12
     920:	fd 05       	cpc	r31, r13
     922:	a1 f7       	brne	.-24     	; 0x90c <setLevel+0xd8>
     924:	f9 99       	sbic	0x1f, 1	; 31
     926:	fe cf       	rjmp	.-4      	; 0x924 <setLevel+0xf0>
     928:	c5 01       	movw	r24, r10
     92a:	08 96       	adiw	r24, 0x08	; 8
     92c:	38 d7       	rcall	.+3696   	; 0x179e <eeprom_read_byte>
     92e:	18 2f       	mov	r17, r24
     930:	f9 99       	sbic	0x1f, 1	; 31
     932:	fe cf       	rjmp	.-4      	; 0x930 <setLevel+0xfc>
     934:	c5 01       	movw	r24, r10
     936:	09 96       	adiw	r24, 0x09	; 9
     938:	32 d7       	rcall	.+3684   	; 0x179e <eeprom_read_byte>
     93a:	e8 e3       	ldi	r30, 0x38	; 56
     93c:	f1 e0       	ldi	r31, 0x01	; 1
     93e:	de 01       	movw	r26, r28
     940:	a9 54       	subi	r26, 0x49	; 73
     942:	bf 4f       	sbci	r27, 0xFF	; 255
     944:	95 2d       	mov	r25, r5
     946:	01 90       	ld	r0, Z+
     948:	0d 92       	st	X+, r0
     94a:	9a 95       	dec	r25
     94c:	e1 f7       	brne	.-8      	; 0x946 <setLevel+0x112>
     94e:	f3 01       	movw	r30, r6
     950:	90 81       	ld	r25, Z
     952:	f4 01       	movw	r30, r8
     954:	de 01       	movw	r26, r28
     956:	a3 59       	subi	r26, 0x93	; 147
     958:	be 4f       	sbci	r27, 0xFE	; 254
     95a:	23 2d       	mov	r18, r3
     95c:	01 90       	ld	r0, Z+
     95e:	0d 92       	st	X+, r0
     960:	2a 95       	dec	r18
     962:	e1 f7       	brne	.-8      	; 0x95c <setLevel+0x128>
     964:	a7 eb       	ldi	r26, 0xB7	; 183
     966:	b0 e0       	ldi	r27, 0x00	; 0
     968:	ac 0f       	add	r26, r28
     96a:	bd 1f       	adc	r27, r29
     96c:	f8 e0       	ldi	r31, 0x08	; 8
     96e:	9f 9f       	mul	r25, r31
     970:	a0 0d       	add	r26, r0
     972:	b1 1d       	adc	r27, r1
     974:	11 24       	eor	r1, r1
     976:	fe 01       	movw	r30, r28
     978:	e3 59       	subi	r30, 0x93	; 147
     97a:	fe 4f       	sbci	r31, 0xFE	; 254
     97c:	23 2d       	mov	r18, r3
     97e:	01 90       	ld	r0, Z+
     980:	0d 92       	st	X+, r0
     982:	2a 95       	dec	r18
     984:	e1 f7       	brne	.-8      	; 0x97e <setLevel+0x14a>
     986:	27 eb       	ldi	r18, 0xB7	; 183
     988:	30 e0       	ldi	r19, 0x00	; 0
     98a:	2c 0f       	add	r18, r28
     98c:	3d 1f       	adc	r19, r29
     98e:	29 0f       	add	r18, r25
     990:	31 1d       	adc	r19, r1
     992:	f9 01       	movw	r30, r18
     994:	e0 57       	subi	r30, 0x70	; 112
     996:	ff 4f       	sbci	r31, 0xFF	; 255
     998:	10 83       	st	Z, r17
     99a:	72 96       	adiw	r30, 0x12	; 18
     99c:	80 83       	st	Z, r24
     99e:	9f 5f       	subi	r25, 0xFF	; 255
     9a0:	c5 59       	subi	r28, 0x95	; 149
     9a2:	de 4f       	sbci	r29, 0xFE	; 254
     9a4:	98 83       	st	Y, r25
     9a6:	cb 56       	subi	r28, 0x6B	; 107
     9a8:	d1 40       	sbci	r29, 0x01	; 1
     9aa:	fe 01       	movw	r30, r28
     9ac:	e9 54       	subi	r30, 0x49	; 73
     9ae:	ff 4f       	sbci	r31, 0xFF	; 255
     9b0:	de 01       	movw	r26, r28
     9b2:	11 96       	adiw	r26, 0x01	; 1
     9b4:	85 2d       	mov	r24, r5
     9b6:	01 90       	ld	r0, Z+
     9b8:	0d 92       	st	X+, r0
     9ba:	8a 95       	dec	r24
     9bc:	e1 f7       	brne	.-8      	; 0x9b6 <setLevel+0x182>
     9be:	cb 54       	subi	r28, 0x4B	; 75
     9c0:	df 4f       	sbci	r29, 0xFF	; 255
     9c2:	98 83       	st	Y, r25
     9c4:	c5 5b       	subi	r28, 0xB5	; 181
     9c6:	d0 40       	sbci	r29, 0x00	; 0
     9c8:	fe 01       	movw	r30, r28
     9ca:	31 96       	adiw	r30, 0x01	; 1
     9cc:	a8 e3       	ldi	r26, 0x38	; 56
     9ce:	b1 e0       	ldi	r27, 0x01	; 1
     9d0:	85 2d       	mov	r24, r5
     9d2:	01 90       	ld	r0, Z+
     9d4:	0d 92       	st	X+, r0
     9d6:	8a 95       	dec	r24
     9d8:	e1 f7       	brne	.-8      	; 0x9d2 <setLevel+0x19e>
     9da:	2a e0       	ldi	r18, 0x0A	; 10
     9dc:	a2 0e       	add	r10, r18
     9de:	b1 1c       	adc	r11, r1
     9e0:	43 94       	inc	r4
     9e2:	42 10       	cpse	r4, r2
     9e4:	1b c0       	rjmp	.+54     	; 0xa1c <setLevel+0x1e8>
     9e6:	1f c0       	rjmp	.+62     	; 0xa26 <setLevel+0x1f2>
     9e8:	41 2c       	mov	r4, r1
     9ea:	0f 2e       	mov	r0, r31
     9ec:	f0 e3       	ldi	r31, 0x30	; 48
     9ee:	8f 2e       	mov	r8, r31
     9f0:	f1 e0       	ldi	r31, 0x01	; 1
     9f2:	9f 2e       	mov	r9, r31
     9f4:	f0 2d       	mov	r31, r0
     9f6:	0f 2e       	mov	r0, r31
     9f8:	f8 e3       	ldi	r31, 0x38	; 56
     9fa:	cf 2e       	mov	r12, r31
     9fc:	f1 e0       	ldi	r31, 0x01	; 1
     9fe:	df 2e       	mov	r13, r31
     a00:	f0 2d       	mov	r31, r0
     a02:	0f 2e       	mov	r0, r31
     a04:	f6 eb       	ldi	r31, 0xB6	; 182
     a06:	5f 2e       	mov	r5, r31
     a08:	f0 2d       	mov	r31, r0
     a0a:	0f 2e       	mov	r0, r31
     a0c:	fc ee       	ldi	r31, 0xEC	; 236
     a0e:	6f 2e       	mov	r6, r31
     a10:	f1 e0       	ldi	r31, 0x01	; 1
     a12:	7f 2e       	mov	r7, r31
     a14:	f0 2d       	mov	r31, r0
     a16:	68 94       	set
     a18:	33 24       	eor	r3, r3
     a1a:	33 f8       	bld	r3, 3
     a1c:	84 01       	movw	r16, r8
     a1e:	75 01       	movw	r14, r10
     a20:	e8 18       	sub	r14, r8
     a22:	f9 08       	sbc	r15, r9
     a24:	73 cf       	rjmp	.-282    	; 0x90c <setLevel+0xd8>
     a26:	c6 5d       	subi	r28, 0xD6	; 214
     a28:	dd 4f       	sbci	r29, 0xFD	; 253
     a2a:	0f b6       	in	r0, 0x3f	; 63
     a2c:	f8 94       	cli
     a2e:	de bf       	out	0x3e, r29	; 62
     a30:	0f be       	out	0x3f, r0	; 63
     a32:	cd bf       	out	0x3d, r28	; 61
     a34:	df 91       	pop	r29
     a36:	cf 91       	pop	r28
     a38:	1f 91       	pop	r17
     a3a:	0f 91       	pop	r16
     a3c:	ff 90       	pop	r15
     a3e:	ef 90       	pop	r14
     a40:	df 90       	pop	r13
     a42:	cf 90       	pop	r12
     a44:	bf 90       	pop	r11
     a46:	af 90       	pop	r10
     a48:	9f 90       	pop	r9
     a4a:	8f 90       	pop	r8
     a4c:	7f 90       	pop	r7
     a4e:	6f 90       	pop	r6
     a50:	5f 90       	pop	r5
     a52:	4f 90       	pop	r4
     a54:	3f 90       	pop	r3
     a56:	2f 90       	pop	r2
     a58:	08 95       	ret

00000a5a <WinTick>:
     a5a:	ef 92       	push	r14
     a5c:	ff 92       	push	r15
     a5e:	0f 93       	push	r16
     a60:	1f 93       	push	r17
     a62:	cf 93       	push	r28
     a64:	df 93       	push	r29
     a66:	cd b7       	in	r28, 0x3d	; 61
     a68:	de b7       	in	r29, 0x3e	; 62
     a6a:	2a 97       	sbiw	r28, 0x0a	; 10
     a6c:	0f b6       	in	r0, 0x3f	; 63
     a6e:	f8 94       	cli
     a70:	de bf       	out	0x3e, r29	; 62
     a72:	0f be       	out	0x3f, r0	; 63
     a74:	cd bf       	out	0x3d, r28	; 61
     a76:	80 91 f6 01 	lds	r24, 0x01F6
     a7a:	87 30       	cpi	r24, 0x07	; 7
     a7c:	b1 f5       	brne	.+108    	; 0xaea <WinTick+0x90>
     a7e:	f9 99       	sbic	0x1f, 1	; 31
     a80:	fe cf       	rjmp	.-4      	; 0xa7e <WinTick+0x24>
     a82:	10 91 0d 01 	lds	r17, 0x010D
     a86:	2a ef       	ldi	r18, 0xFA	; 250
     a88:	12 9f       	mul	r17, r18
     a8a:	c0 01       	movw	r24, r0
     a8c:	11 24       	eor	r1, r1
     a8e:	85 50       	subi	r24, 0x05	; 5
     a90:	9f 4f       	sbci	r25, 0xFF	; 255
     a92:	85 d6       	rcall	.+3338   	; 0x179e <eeprom_read_byte>
     a94:	88 23       	and	r24, r24
     a96:	49 f1       	breq	.+82     	; 0xaea <WinTick+0x90>
     a98:	1f 5f       	subi	r17, 0xFF	; 255
     a9a:	10 93 0d 01 	sts	0x010D, r17
     a9e:	ca de       	rcall	.-620    	; 0x834 <setLevel>
     aa0:	e0 90 ee 01 	lds	r14, 0x01EE
     aa4:	f0 90 ef 01 	lds	r15, 0x01EF
     aa8:	00 91 f0 01 	lds	r16, 0x01F0
     aac:	10 91 f1 01 	lds	r17, 0x01F1
     ab0:	20 91 f2 01 	lds	r18, 0x01F2
     ab4:	30 91 f3 01 	lds	r19, 0x01F3
     ab8:	40 91 f4 01 	lds	r20, 0x01F4
     abc:	50 91 f5 01 	lds	r21, 0x01F5
     ac0:	60 91 f6 01 	lds	r22, 0x01F6
     ac4:	70 91 f7 01 	lds	r23, 0x01F7
     ac8:	ce 01       	movw	r24, r28
     aca:	01 96       	adiw	r24, 0x01	; 1
     acc:	1a dc       	rcall	.-1996   	; 0x302 <initSingleUserMatrix>
     ace:	8a e0       	ldi	r24, 0x0A	; 10
     ad0:	fe 01       	movw	r30, r28
     ad2:	31 96       	adiw	r30, 0x01	; 1
     ad4:	ae ee       	ldi	r26, 0xEE	; 238
     ad6:	b1 e0       	ldi	r27, 0x01	; 1
     ad8:	01 90       	ld	r0, Z+
     ada:	0d 92       	st	X+, r0
     adc:	8a 95       	dec	r24
     ade:	e1 f7       	brne	.-8      	; 0xad8 <WinTick+0x7e>
     ae0:	e0 ec       	ldi	r30, 0xC0	; 192
     ae2:	f0 e0       	ldi	r31, 0x00	; 0
     ae4:	80 81       	ld	r24, Z
     ae6:	85 ff       	sbrs	r24, 5
     ae8:	fd cf       	rjmp	.-6      	; 0xae4 <WinTick+0x8a>
     aea:	2a 96       	adiw	r28, 0x0a	; 10
     aec:	0f b6       	in	r0, 0x3f	; 63
     aee:	f8 94       	cli
     af0:	de bf       	out	0x3e, r29	; 62
     af2:	0f be       	out	0x3f, r0	; 63
     af4:	cd bf       	out	0x3d, r28	; 61
     af6:	df 91       	pop	r29
     af8:	cf 91       	pop	r28
     afa:	1f 91       	pop	r17
     afc:	0f 91       	pop	r16
     afe:	ff 90       	pop	r15
     b00:	ef 90       	pop	r14
     b02:	08 95       	ret

00000b04 <addLevel>:
     b04:	ef 92       	push	r14
     b06:	ff 92       	push	r15
     b08:	0f 93       	push	r16
     b0a:	1f 93       	push	r17
     b0c:	cf 93       	push	r28
     b0e:	df 93       	push	r29
     b10:	80 91 0e 01 	lds	r24, 0x010E
     b14:	8a 30       	cpi	r24, 0x0A	; 10
     b16:	b8 f5       	brcc	.+110    	; 0xb86 <addLevel+0x82>
     b18:	f9 99       	sbic	0x1f, 1	; 31
     b1a:	fe cf       	rjmp	.-4      	; 0xb18 <addLevel+0x14>
     b1c:	01 e0       	ldi	r16, 0x01	; 1
     b1e:	10 e0       	ldi	r17, 0x00	; 0
     b20:	04 c0       	rjmp	.+8      	; 0xb2a <addLevel+0x26>
     b22:	06 50       	subi	r16, 0x06	; 6
     b24:	1f 4f       	sbci	r17, 0xFF	; 255
     b26:	f9 99       	sbic	0x1f, 1	; 31
     b28:	fe cf       	rjmp	.-4      	; 0xb26 <addLevel+0x22>
     b2a:	c8 01       	movw	r24, r16
     b2c:	38 d6       	rcall	.+3184   	; 0x179e <eeprom_read_byte>
     b2e:	81 11       	cpse	r24, r1
     b30:	f8 cf       	rjmp	.-16     	; 0xb22 <addLevel+0x1e>
     b32:	f9 99       	sbic	0x1f, 1	; 31
     b34:	fe cf       	rjmp	.-4      	; 0xb32 <addLevel+0x2e>
     b36:	61 e0       	ldi	r22, 0x01	; 1
     b38:	c8 01       	movw	r24, r16
     b3a:	39 d6       	rcall	.+3186   	; 0x17ae <eeprom_update_byte>
     b3c:	e8 01       	movw	r28, r16
     b3e:	2a 96       	adiw	r28, 0x0a	; 10
     b40:	78 01       	movw	r14, r16
     b42:	82 e1       	ldi	r24, 0x12	; 18
     b44:	e8 0e       	add	r14, r24
     b46:	f1 1c       	adc	r15, r1
     b48:	f9 99       	sbic	0x1f, 1	; 31
     b4a:	fe cf       	rjmp	.-4      	; 0xb48 <addLevel+0x44>
     b4c:	6f ef       	ldi	r22, 0xFF	; 255
     b4e:	ce 01       	movw	r24, r28
     b50:	09 97       	sbiw	r24, 0x09	; 9
     b52:	2d d6       	rcall	.+3162   	; 0x17ae <eeprom_update_byte>
     b54:	f9 99       	sbic	0x1f, 1	; 31
     b56:	fe cf       	rjmp	.-4      	; 0xb54 <addLevel+0x50>
     b58:	6f ef       	ldi	r22, 0xFF	; 255
     b5a:	ce 01       	movw	r24, r28
     b5c:	28 d6       	rcall	.+3152   	; 0x17ae <eeprom_update_byte>
     b5e:	21 96       	adiw	r28, 0x01	; 1
     b60:	ce 15       	cp	r28, r14
     b62:	df 05       	cpc	r29, r15
     b64:	89 f7       	brne	.-30     	; 0xb48 <addLevel+0x44>
     b66:	f9 99       	sbic	0x1f, 1	; 31
     b68:	fe cf       	rjmp	.-4      	; 0xb66 <addLevel+0x62>
     b6a:	60 e0       	ldi	r22, 0x00	; 0
     b6c:	c7 01       	movw	r24, r14
     b6e:	1f d6       	rcall	.+3134   	; 0x17ae <eeprom_update_byte>
     b70:	f9 99       	sbic	0x1f, 1	; 31
     b72:	fe cf       	rjmp	.-4      	; 0xb70 <addLevel+0x6c>
     b74:	60 e0       	ldi	r22, 0x00	; 0
     b76:	c8 01       	movw	r24, r16
     b78:	43 96       	adiw	r24, 0x13	; 19
     b7a:	19 d6       	rcall	.+3122   	; 0x17ae <eeprom_update_byte>
     b7c:	80 91 0e 01 	lds	r24, 0x010E
     b80:	8f 5f       	subi	r24, 0xFF	; 255
     b82:	80 93 0e 01 	sts	0x010E, r24
     b86:	df 91       	pop	r29
     b88:	cf 91       	pop	r28
     b8a:	1f 91       	pop	r17
     b8c:	0f 91       	pop	r16
     b8e:	ff 90       	pop	r15
     b90:	ef 90       	pop	r14
     b92:	08 95       	ret

00000b94 <addPattern>:
     b94:	af 92       	push	r10
     b96:	bf 92       	push	r11
     b98:	cf 92       	push	r12
     b9a:	df 92       	push	r13
     b9c:	ef 92       	push	r14
     b9e:	ff 92       	push	r15
     ba0:	1f 93       	push	r17
     ba2:	cf 93       	push	r28
     ba4:	df 93       	push	r29
     ba6:	c0 91 0d 01 	lds	r28, 0x010D
     baa:	8a ef       	ldi	r24, 0xFA	; 250
     bac:	c8 9f       	mul	r28, r24
     bae:	e0 01       	movw	r28, r0
     bb0:	11 24       	eor	r1, r1
     bb2:	f9 99       	sbic	0x1f, 1	; 31
     bb4:	fe cf       	rjmp	.-4      	; 0xbb2 <addPattern+0x1e>
     bb6:	6e 01       	movw	r12, r28
     bb8:	8f ef       	ldi	r24, 0xFF	; 255
     bba:	c8 1a       	sub	r12, r24
     bbc:	d8 0a       	sbc	r13, r24
     bbe:	c6 01       	movw	r24, r12
     bc0:	ee d5       	rcall	.+3036   	; 0x179e <eeprom_read_byte>
     bc2:	18 2f       	mov	r17, r24
     bc4:	82 31       	cpi	r24, 0x12	; 18
     bc6:	08 f0       	brcs	.+2      	; 0xbca <addPattern+0x36>
     bc8:	3f c0       	rjmp	.+126    	; 0xc48 <addPattern+0xb4>
     bca:	7e 01       	movw	r14, r28
     bcc:	8b e0       	ldi	r24, 0x0B	; 11
     bce:	e8 0e       	add	r14, r24
     bd0:	f1 1c       	adc	r15, r1
     bd2:	11 23       	and	r17, r17
     bd4:	99 f1       	breq	.+102    	; 0xc3c <addPattern+0xa8>
     bd6:	90 e0       	ldi	r25, 0x00	; 0
     bd8:	9f 5f       	subi	r25, 0xFF	; 255
     bda:	91 13       	cpse	r25, r17
     bdc:	fd cf       	rjmp	.-6      	; 0xbd8 <addPattern+0x44>
     bde:	65 96       	adiw	r28, 0x15	; 21
     be0:	2f ef       	ldi	r18, 0xFF	; 255
     be2:	21 0f       	add	r18, r17
     be4:	30 e0       	ldi	r19, 0x00	; 0
     be6:	79 01       	movw	r14, r18
     be8:	ee 0c       	add	r14, r14
     bea:	ff 1c       	adc	r15, r15
     bec:	22 0f       	add	r18, r18
     bee:	33 1f       	adc	r19, r19
     bf0:	22 0f       	add	r18, r18
     bf2:	33 1f       	adc	r19, r19
     bf4:	22 0f       	add	r18, r18
     bf6:	33 1f       	adc	r19, r19
     bf8:	2e 0d       	add	r18, r14
     bfa:	3f 1d       	adc	r19, r15
     bfc:	7e 01       	movw	r14, r28
     bfe:	e2 0e       	add	r14, r18
     c00:	f3 1e       	adc	r15, r19
     c02:	1c c0       	rjmp	.+56     	; 0xc3c <addPattern+0xa8>
     c04:	f9 99       	sbic	0x1f, 1	; 31
     c06:	fe cf       	rjmp	.-4      	; 0xc04 <addPattern+0x70>
     c08:	6f ef       	ldi	r22, 0xFF	; 255
     c0a:	ce 01       	movw	r24, r28
     c0c:	d0 d5       	rcall	.+2976   	; 0x17ae <eeprom_update_byte>
     c0e:	21 96       	adiw	r28, 0x01	; 1
     c10:	ca 15       	cp	r28, r10
     c12:	db 05       	cpc	r29, r11
     c14:	b9 f7       	brne	.-18     	; 0xc04 <addPattern+0x70>
     c16:	f9 99       	sbic	0x1f, 1	; 31
     c18:	fe cf       	rjmp	.-4      	; 0xc16 <addPattern+0x82>
     c1a:	60 e0       	ldi	r22, 0x00	; 0
     c1c:	c5 01       	movw	r24, r10
     c1e:	c7 d5       	rcall	.+2958   	; 0x17ae <eeprom_update_byte>
     c20:	f9 99       	sbic	0x1f, 1	; 31
     c22:	fe cf       	rjmp	.-4      	; 0xc20 <addPattern+0x8c>
     c24:	60 e0       	ldi	r22, 0x00	; 0
     c26:	c7 01       	movw	r24, r14
     c28:	09 96       	adiw	r24, 0x09	; 9
     c2a:	c1 d5       	rcall	.+2946   	; 0x17ae <eeprom_update_byte>
     c2c:	61 e0       	ldi	r22, 0x01	; 1
     c2e:	61 0f       	add	r22, r17
     c30:	f9 99       	sbic	0x1f, 1	; 31
     c32:	fe cf       	rjmp	.-4      	; 0xc30 <addPattern+0x9c>
     c34:	c6 01       	movw	r24, r12
     c36:	bb d5       	rcall	.+2934   	; 0x17ae <eeprom_update_byte>
     c38:	fd dd       	rcall	.-1030   	; 0x834 <setLevel>
     c3a:	06 c0       	rjmp	.+12     	; 0xc48 <addPattern+0xb4>
     c3c:	57 01       	movw	r10, r14
     c3e:	88 e0       	ldi	r24, 0x08	; 8
     c40:	a8 0e       	add	r10, r24
     c42:	b1 1c       	adc	r11, r1
     c44:	e7 01       	movw	r28, r14
     c46:	de cf       	rjmp	.-68     	; 0xc04 <addPattern+0x70>
     c48:	df 91       	pop	r29
     c4a:	cf 91       	pop	r28
     c4c:	1f 91       	pop	r17
     c4e:	ff 90       	pop	r15
     c50:	ef 90       	pop	r14
     c52:	df 90       	pop	r13
     c54:	cf 90       	pop	r12
     c56:	bf 90       	pop	r11
     c58:	af 90       	pop	r10
     c5a:	08 95       	ret

00000c5c <deletePattern>:
     c5c:	8f 92       	push	r8
     c5e:	9f 92       	push	r9
     c60:	bf 92       	push	r11
     c62:	cf 92       	push	r12
     c64:	df 92       	push	r13
     c66:	ef 92       	push	r14
     c68:	ff 92       	push	r15
     c6a:	0f 93       	push	r16
     c6c:	1f 93       	push	r17
     c6e:	cf 93       	push	r28
     c70:	df 93       	push	r29
     c72:	e0 90 0d 01 	lds	r14, 0x010D
     c76:	8a ef       	ldi	r24, 0xFA	; 250
     c78:	e8 9e       	mul	r14, r24
     c7a:	70 01       	movw	r14, r0
     c7c:	11 24       	eor	r1, r1
     c7e:	f9 99       	sbic	0x1f, 1	; 31
     c80:	fe cf       	rjmp	.-4      	; 0xc7e <deletePattern+0x22>
     c82:	47 01       	movw	r8, r14
     c84:	8f ef       	ldi	r24, 0xFF	; 255
     c86:	88 1a       	sub	r8, r24
     c88:	98 0a       	sbc	r9, r24
     c8a:	c4 01       	movw	r24, r8
     c8c:	88 d5       	rcall	.+2832   	; 0x179e <eeprom_read_byte>
     c8e:	c8 2e       	mov	r12, r24
     c90:	81 e0       	ldi	r24, 0x01	; 1
     c92:	8c 15       	cp	r24, r12
     c94:	08 f0       	brcs	.+2      	; 0xc98 <deletePattern+0x3c>
     c96:	4b c0       	rjmp	.+150    	; 0xd2e <deletePattern+0xd2>
     c98:	8b e0       	ldi	r24, 0x0B	; 11
     c9a:	e8 0e       	add	r14, r24
     c9c:	f1 1c       	adc	r15, r1
     c9e:	b0 90 0c 01 	lds	r11, 0x010C
     ca2:	bb 20       	and	r11, r11
     ca4:	a9 f0       	breq	.+42     	; 0xcd0 <deletePattern+0x74>
     ca6:	90 e0       	ldi	r25, 0x00	; 0
     ca8:	9f 5f       	subi	r25, 0xFF	; 255
     caa:	9b 11       	cpse	r25, r11
     cac:	fd cf       	rjmp	.-6      	; 0xca8 <deletePattern+0x4c>
     cae:	8f ef       	ldi	r24, 0xFF	; 255
     cb0:	8b 0d       	add	r24, r11
     cb2:	90 e0       	ldi	r25, 0x00	; 0
     cb4:	9c 01       	movw	r18, r24
     cb6:	22 0f       	add	r18, r18
     cb8:	33 1f       	adc	r19, r19
     cba:	88 0f       	add	r24, r24
     cbc:	99 1f       	adc	r25, r25
     cbe:	88 0f       	add	r24, r24
     cc0:	99 1f       	adc	r25, r25
     cc2:	88 0f       	add	r24, r24
     cc4:	99 1f       	adc	r25, r25
     cc6:	82 0f       	add	r24, r18
     cc8:	93 1f       	adc	r25, r19
     cca:	0a 96       	adiw	r24, 0x0a	; 10
     ccc:	e8 0e       	add	r14, r24
     cce:	f9 1e       	adc	r15, r25
     cd0:	bc 14       	cp	r11, r12
     cd2:	c8 f0       	brcs	.+50     	; 0xd06 <deletePattern+0xaa>
     cd4:	c0 e0       	ldi	r28, 0x00	; 0
     cd6:	1d c0       	rjmp	.+58     	; 0xd12 <deletePattern+0xb6>
     cd8:	f9 99       	sbic	0x1f, 1	; 31
     cda:	fe cf       	rjmp	.-4      	; 0xcd8 <deletePattern+0x7c>
     cdc:	ce 01       	movw	r24, r28
     cde:	0a 96       	adiw	r24, 0x0a	; 10
     ce0:	5e d5       	rcall	.+2748   	; 0x179e <eeprom_read_byte>
     ce2:	68 2f       	mov	r22, r24
     ce4:	f9 99       	sbic	0x1f, 1	; 31
     ce6:	fe cf       	rjmp	.-4      	; 0xce4 <deletePattern+0x88>
     ce8:	ce 01       	movw	r24, r28
     cea:	61 d5       	rcall	.+2754   	; 0x17ae <eeprom_update_byte>
     cec:	21 96       	adiw	r28, 0x01	; 1
     cee:	c0 17       	cp	r28, r16
     cf0:	d1 07       	cpc	r29, r17
     cf2:	91 f7       	brne	.-28     	; 0xcd8 <deletePattern+0x7c>
     cf4:	d3 94       	inc	r13
     cf6:	8a e0       	ldi	r24, 0x0A	; 10
     cf8:	e8 0e       	add	r14, r24
     cfa:	f1 1c       	adc	r15, r1
     cfc:	dc 14       	cp	r13, r12
     cfe:	20 f0       	brcs	.+8      	; 0xd08 <deletePattern+0xac>
     d00:	cc 2d       	mov	r28, r12
     d02:	cb 19       	sub	r28, r11
     d04:	06 c0       	rjmp	.+12     	; 0xd12 <deletePattern+0xb6>
     d06:	db 2c       	mov	r13, r11
     d08:	87 01       	movw	r16, r14
     d0a:	08 5f       	subi	r16, 0xF8	; 248
     d0c:	1f 4f       	sbci	r17, 0xFF	; 255
     d0e:	e7 01       	movw	r28, r14
     d10:	e3 cf       	rjmp	.-58     	; 0xcd8 <deletePattern+0x7c>
     d12:	6f ef       	ldi	r22, 0xFF	; 255
     d14:	6c 0d       	add	r22, r12
     d16:	f9 99       	sbic	0x1f, 1	; 31
     d18:	fe cf       	rjmp	.-4      	; 0xd16 <deletePattern+0xba>
     d1a:	c4 01       	movw	r24, r8
     d1c:	48 d5       	rcall	.+2704   	; 0x17ae <eeprom_update_byte>
     d1e:	c1 30       	cpi	r28, 0x01	; 1
     d20:	29 f4       	brne	.+10     	; 0xd2c <deletePattern+0xd0>
     d22:	80 91 0c 01 	lds	r24, 0x010C
     d26:	81 50       	subi	r24, 0x01	; 1
     d28:	80 93 0c 01 	sts	0x010C, r24
     d2c:	83 dd       	rcall	.-1274   	; 0x834 <setLevel>
     d2e:	df 91       	pop	r29
     d30:	cf 91       	pop	r28
     d32:	1f 91       	pop	r17
     d34:	0f 91       	pop	r16
     d36:	ff 90       	pop	r15
     d38:	ef 90       	pop	r14
     d3a:	df 90       	pop	r13
     d3c:	cf 90       	pop	r12
     d3e:	bf 90       	pop	r11
     d40:	9f 90       	pop	r9
     d42:	8f 90       	pop	r8
     d44:	08 95       	ret

00000d46 <updatePattern>:
     d46:	0f 93       	push	r16
     d48:	1f 93       	push	r17
     d4a:	cf 93       	push	r28
     d4c:	df 93       	push	r29
     d4e:	00 91 0d 01 	lds	r16, 0x010D
     d52:	8a ef       	ldi	r24, 0xFA	; 250
     d54:	08 9f       	mul	r16, r24
     d56:	80 01       	movw	r16, r0
     d58:	11 24       	eor	r1, r1
     d5a:	05 5f       	subi	r16, 0xF5	; 245
     d5c:	1f 4f       	sbci	r17, 0xFF	; 255
     d5e:	90 91 0c 01 	lds	r25, 0x010C
     d62:	99 23       	and	r25, r25
     d64:	61 f1       	breq	.+88     	; 0xdbe <updatePattern+0x78>
     d66:	80 e0       	ldi	r24, 0x00	; 0
     d68:	8f 5f       	subi	r24, 0xFF	; 255
     d6a:	89 13       	cpse	r24, r25
     d6c:	fd cf       	rjmp	.-6      	; 0xd68 <updatePattern+0x22>
     d6e:	91 50       	subi	r25, 0x01	; 1
     d70:	89 2f       	mov	r24, r25
     d72:	90 e0       	ldi	r25, 0x00	; 0
     d74:	9c 01       	movw	r18, r24
     d76:	22 0f       	add	r18, r18
     d78:	33 1f       	adc	r19, r19
     d7a:	88 0f       	add	r24, r24
     d7c:	99 1f       	adc	r25, r25
     d7e:	88 0f       	add	r24, r24
     d80:	99 1f       	adc	r25, r25
     d82:	88 0f       	add	r24, r24
     d84:	99 1f       	adc	r25, r25
     d86:	82 0f       	add	r24, r18
     d88:	93 1f       	adc	r25, r19
     d8a:	0a 96       	adiw	r24, 0x0a	; 10
     d8c:	08 0f       	add	r16, r24
     d8e:	19 1f       	adc	r17, r25
     d90:	16 c0       	rjmp	.+44     	; 0xdbe <updatePattern+0x78>
     d92:	f9 99       	sbic	0x1f, 1	; 31
     d94:	fe cf       	rjmp	.-4      	; 0xd92 <updatePattern+0x4c>
     d96:	80 91 0c 01 	lds	r24, 0x010C
     d9a:	fe 01       	movw	r30, r28
     d9c:	98 e0       	ldi	r25, 0x08	; 8
     d9e:	89 9f       	mul	r24, r25
     da0:	e0 0d       	add	r30, r0
     da2:	f1 1d       	adc	r31, r1
     da4:	11 24       	eor	r1, r1
     da6:	e8 5c       	subi	r30, 0xC8	; 200
     da8:	fe 4f       	sbci	r31, 0xFE	; 254
     daa:	60 81       	ld	r22, Z
     dac:	ce 01       	movw	r24, r28
     dae:	80 0f       	add	r24, r16
     db0:	91 1f       	adc	r25, r17
     db2:	fd d4       	rcall	.+2554   	; 0x17ae <eeprom_update_byte>
     db4:	21 96       	adiw	r28, 0x01	; 1
     db6:	c8 30       	cpi	r28, 0x08	; 8
     db8:	d1 05       	cpc	r29, r1
     dba:	59 f7       	brne	.-42     	; 0xd92 <updatePattern+0x4c>
     dbc:	03 c0       	rjmp	.+6      	; 0xdc4 <updatePattern+0x7e>
     dbe:	c0 e0       	ldi	r28, 0x00	; 0
     dc0:	d0 e0       	ldi	r29, 0x00	; 0
     dc2:	e7 cf       	rjmp	.-50     	; 0xd92 <updatePattern+0x4c>
     dc4:	df 91       	pop	r29
     dc6:	cf 91       	pop	r28
     dc8:	1f 91       	pop	r17
     dca:	0f 91       	pop	r16
     dcc:	08 95       	ret

00000dce <updateWall>:
     dce:	ef 92       	push	r14
     dd0:	ff 92       	push	r15
     dd2:	0f 93       	push	r16
     dd4:	1f 93       	push	r17
     dd6:	cf 93       	push	r28
     dd8:	df 93       	push	r29
     dda:	08 ef       	ldi	r16, 0xF8	; 248
     ddc:	11 e0       	ldi	r17, 0x01	; 1
     dde:	c0 91 0d 01 	lds	r28, 0x010D
     de2:	8a ef       	ldi	r24, 0xFA	; 250
     de4:	c8 9f       	mul	r28, r24
     de6:	e0 01       	movw	r28, r0
     de8:	11 24       	eor	r1, r1
     dea:	22 96       	adiw	r28, 0x02	; 2
     dec:	0f 2e       	mov	r0, r31
     dee:	f0 e0       	ldi	r31, 0x00	; 0
     df0:	ef 2e       	mov	r14, r31
     df2:	f2 e0       	ldi	r31, 0x02	; 2
     df4:	ff 2e       	mov	r15, r31
     df6:	f0 2d       	mov	r31, r0
     df8:	f9 99       	sbic	0x1f, 1	; 31
     dfa:	fe cf       	rjmp	.-4      	; 0xdf8 <updateWall+0x2a>
     dfc:	f8 01       	movw	r30, r16
     dfe:	61 91       	ld	r22, Z+
     e00:	8f 01       	movw	r16, r30
     e02:	ce 01       	movw	r24, r28
     e04:	d4 d4       	rcall	.+2472   	; 0x17ae <eeprom_update_byte>
     e06:	21 96       	adiw	r28, 0x01	; 1
     e08:	0e 15       	cp	r16, r14
     e0a:	1f 05       	cpc	r17, r15
     e0c:	a9 f7       	brne	.-22     	; 0xdf8 <updateWall+0x2a>
     e0e:	df 91       	pop	r29
     e10:	cf 91       	pop	r28
     e12:	1f 91       	pop	r17
     e14:	0f 91       	pop	r16
     e16:	ff 90       	pop	r15
     e18:	ef 90       	pop	r14
     e1a:	08 95       	ret

00000e1c <editBetween>:
     e1c:	88 23       	and	r24, r24
     e1e:	51 f0       	breq	.+20     	; 0xe34 <editBetween+0x18>
     e20:	e0 91 0c 01 	lds	r30, 0x010C
     e24:	ae 2f       	mov	r26, r30
     e26:	b0 e0       	ldi	r27, 0x00	; 0
     e28:	a8 53       	subi	r26, 0x38	; 56
     e2a:	be 4f       	sbci	r27, 0xFE	; 254
     e2c:	9c 91       	ld	r25, X
     e2e:	93 36       	cpi	r25, 0x63	; 99
     e30:	58 f0       	brcs	.+22     	; 0xe48 <editBetween+0x2c>
     e32:	08 95       	ret
     e34:	e0 91 0c 01 	lds	r30, 0x010C
     e38:	ae 2f       	mov	r26, r30
     e3a:	b0 e0       	ldi	r27, 0x00	; 0
     e3c:	a8 53       	subi	r26, 0x38	; 56
     e3e:	be 4f       	sbci	r27, 0xFE	; 254
     e40:	9c 91       	ld	r25, X
     e42:	91 11       	cpse	r25, r1
     e44:	28 c0       	rjmp	.+80     	; 0xe96 <editBetween+0x7a>
     e46:	08 95       	ret
     e48:	20 91 0d 01 	lds	r18, 0x010D
     e4c:	9a ef       	ldi	r25, 0xFA	; 250
     e4e:	29 9f       	mul	r18, r25
     e50:	90 01       	movw	r18, r0
     e52:	11 24       	eor	r1, r1
     e54:	2d 5e       	subi	r18, 0xED	; 237
     e56:	3f 4f       	sbci	r19, 0xFF	; 255
     e58:	ee 23       	and	r30, r30
     e5a:	41 f0       	breq	.+16     	; 0xe6c <editBetween+0x50>
     e5c:	90 e0       	ldi	r25, 0x00	; 0
     e5e:	26 5f       	subi	r18, 0xF6	; 246
     e60:	3f 4f       	sbci	r19, 0xFF	; 255
     e62:	9f 5f       	subi	r25, 0xFF	; 255
     e64:	9e 17       	cp	r25, r30
     e66:	d8 f3       	brcs	.-10     	; 0xe5e <editBetween+0x42>
     e68:	88 23       	and	r24, r24
     e6a:	39 f0       	breq	.+14     	; 0xe7a <editBetween+0x5e>
     e6c:	f0 e0       	ldi	r31, 0x00	; 0
     e6e:	e8 53       	subi	r30, 0x38	; 56
     e70:	fe 4f       	sbci	r31, 0xFE	; 254
     e72:	80 81       	ld	r24, Z
     e74:	8f 5f       	subi	r24, 0xFF	; 255
     e76:	80 83       	st	Z, r24
     e78:	06 c0       	rjmp	.+12     	; 0xe86 <editBetween+0x6a>
     e7a:	f0 e0       	ldi	r31, 0x00	; 0
     e7c:	e8 53       	subi	r30, 0x38	; 56
     e7e:	fe 4f       	sbci	r31, 0xFE	; 254
     e80:	80 81       	ld	r24, Z
     e82:	81 50       	subi	r24, 0x01	; 1
     e84:	80 83       	st	Z, r24
     e86:	30 93 08 01 	sts	0x0108, r19
     e8a:	20 93 07 01 	sts	0x0107, r18
     e8e:	81 e0       	ldi	r24, 0x01	; 1
     e90:	80 93 06 01 	sts	0x0106, r24
     e94:	08 95       	ret
     e96:	20 91 0d 01 	lds	r18, 0x010D
     e9a:	9a ef       	ldi	r25, 0xFA	; 250
     e9c:	29 9f       	mul	r18, r25
     e9e:	90 01       	movw	r18, r0
     ea0:	11 24       	eor	r1, r1
     ea2:	2d 5e       	subi	r18, 0xED	; 237
     ea4:	3f 4f       	sbci	r19, 0xFF	; 255
     ea6:	e1 11       	cpse	r30, r1
     ea8:	d9 cf       	rjmp	.-78     	; 0xe5c <editBetween+0x40>
     eaa:	e7 cf       	rjmp	.-50     	; 0xe7a <editBetween+0x5e>

00000eac <editDuration>:
     eac:	88 23       	and	r24, r24
     eae:	51 f0       	breq	.+20     	; 0xec4 <editDuration+0x18>
     eb0:	e0 91 0c 01 	lds	r30, 0x010C
     eb4:	ae 2f       	mov	r26, r30
     eb6:	b0 e0       	ldi	r27, 0x00	; 0
     eb8:	a6 52       	subi	r26, 0x26	; 38
     eba:	be 4f       	sbci	r27, 0xFE	; 254
     ebc:	9c 91       	ld	r25, X
     ebe:	93 36       	cpi	r25, 0x63	; 99
     ec0:	58 f0       	brcs	.+22     	; 0xed8 <editDuration+0x2c>
     ec2:	08 95       	ret
     ec4:	e0 91 0c 01 	lds	r30, 0x010C
     ec8:	ae 2f       	mov	r26, r30
     eca:	b0 e0       	ldi	r27, 0x00	; 0
     ecc:	a6 52       	subi	r26, 0x26	; 38
     ece:	be 4f       	sbci	r27, 0xFE	; 254
     ed0:	9c 91       	ld	r25, X
     ed2:	91 11       	cpse	r25, r1
     ed4:	28 c0       	rjmp	.+80     	; 0xf26 <editDuration+0x7a>
     ed6:	08 95       	ret
     ed8:	20 91 0d 01 	lds	r18, 0x010D
     edc:	9a ef       	ldi	r25, 0xFA	; 250
     ede:	29 9f       	mul	r18, r25
     ee0:	90 01       	movw	r18, r0
     ee2:	11 24       	eor	r1, r1
     ee4:	2c 5e       	subi	r18, 0xEC	; 236
     ee6:	3f 4f       	sbci	r19, 0xFF	; 255
     ee8:	ee 23       	and	r30, r30
     eea:	41 f0       	breq	.+16     	; 0xefc <editDuration+0x50>
     eec:	90 e0       	ldi	r25, 0x00	; 0
     eee:	26 5f       	subi	r18, 0xF6	; 246
     ef0:	3f 4f       	sbci	r19, 0xFF	; 255
     ef2:	9f 5f       	subi	r25, 0xFF	; 255
     ef4:	9e 17       	cp	r25, r30
     ef6:	d8 f3       	brcs	.-10     	; 0xeee <editDuration+0x42>
     ef8:	88 23       	and	r24, r24
     efa:	39 f0       	breq	.+14     	; 0xf0a <editDuration+0x5e>
     efc:	f0 e0       	ldi	r31, 0x00	; 0
     efe:	e6 52       	subi	r30, 0x26	; 38
     f00:	fe 4f       	sbci	r31, 0xFE	; 254
     f02:	80 81       	ld	r24, Z
     f04:	8f 5f       	subi	r24, 0xFF	; 255
     f06:	80 83       	st	Z, r24
     f08:	06 c0       	rjmp	.+12     	; 0xf16 <editDuration+0x6a>
     f0a:	f0 e0       	ldi	r31, 0x00	; 0
     f0c:	e6 52       	subi	r30, 0x26	; 38
     f0e:	fe 4f       	sbci	r31, 0xFE	; 254
     f10:	80 81       	ld	r24, Z
     f12:	81 50       	subi	r24, 0x01	; 1
     f14:	80 83       	st	Z, r24
     f16:	30 93 0b 01 	sts	0x010B, r19
     f1a:	20 93 0a 01 	sts	0x010A, r18
     f1e:	81 e0       	ldi	r24, 0x01	; 1
     f20:	80 93 09 01 	sts	0x0109, r24
     f24:	08 95       	ret
     f26:	20 91 0d 01 	lds	r18, 0x010D
     f2a:	9a ef       	ldi	r25, 0xFA	; 250
     f2c:	29 9f       	mul	r18, r25
     f2e:	90 01       	movw	r18, r0
     f30:	11 24       	eor	r1, r1
     f32:	2c 5e       	subi	r18, 0xEC	; 236
     f34:	3f 4f       	sbci	r19, 0xFF	; 255
     f36:	e1 11       	cpse	r30, r1
     f38:	d9 cf       	rjmp	.-78     	; 0xeec <editDuration+0x40>
     f3a:	e7 cf       	rjmp	.-50     	; 0xf0a <editDuration+0x5e>

00000f3c <displayLevel>:
     f3c:	cf 93       	push	r28
     f3e:	df 93       	push	r29
     f40:	cd b7       	in	r28, 0x3d	; 61
     f42:	de b7       	in	r29, 0x3e	; 62
     f44:	c6 5b       	subi	r28, 0xB6	; 182
     f46:	d1 09       	sbc	r29, r1
     f48:	0f b6       	in	r0, 0x3f	; 63
     f4a:	f8 94       	cli
     f4c:	de bf       	out	0x3e, r29	; 62
     f4e:	0f be       	out	0x3f, r0	; 63
     f50:	cd bf       	out	0x3d, r28	; 61
     f52:	8d b7       	in	r24, 0x3d	; 61
     f54:	9e b7       	in	r25, 0x3e	; 62
     f56:	86 5b       	subi	r24, 0xB6	; 182
     f58:	91 09       	sbc	r25, r1
     f5a:	0f b6       	in	r0, 0x3f	; 63
     f5c:	f8 94       	cli
     f5e:	9e bf       	out	0x3e, r25	; 62
     f60:	0f be       	out	0x3f, r0	; 63
     f62:	8d bf       	out	0x3d, r24	; 61
     f64:	ad b7       	in	r26, 0x3d	; 61
     f66:	be b7       	in	r27, 0x3e	; 62
     f68:	11 96       	adiw	r26, 0x01	; 1
     f6a:	86 eb       	ldi	r24, 0xB6	; 182
     f6c:	e8 e3       	ldi	r30, 0x38	; 56
     f6e:	f1 e0       	ldi	r31, 0x01	; 1
     f70:	01 90       	ld	r0, Z+
     f72:	0d 92       	st	X+, r0
     f74:	8a 95       	dec	r24
     f76:	e1 f7       	brne	.-8      	; 0xf70 <displayLevel+0x34>
     f78:	ce 01       	movw	r24, r28
     f7a:	01 96       	adiw	r24, 0x01	; 1
     f7c:	64 db       	rcall	.-2360   	; 0x646 <ExpTick>
     f7e:	86 eb       	ldi	r24, 0xB6	; 182
     f80:	fe 01       	movw	r30, r28
     f82:	31 96       	adiw	r30, 0x01	; 1
     f84:	a8 e3       	ldi	r26, 0x38	; 56
     f86:	b1 e0       	ldi	r27, 0x01	; 1
     f88:	01 90       	ld	r0, Z+
     f8a:	0d 92       	st	X+, r0
     f8c:	8a 95       	dec	r24
     f8e:	e1 f7       	brne	.-8      	; 0xf88 <displayLevel+0x4c>
     f90:	0f b6       	in	r0, 0x3f	; 63
     f92:	f8 94       	cli
     f94:	de bf       	out	0x3e, r29	; 62
     f96:	0f be       	out	0x3f, r0	; 63
     f98:	cd bf       	out	0x3d, r28	; 61
     f9a:	61 e0       	ldi	r22, 0x01	; 1
     f9c:	88 ef       	ldi	r24, 0xF8	; 248
     f9e:	91 e0       	ldi	r25, 0x01	; 1
     fa0:	63 da       	rcall	.-2874   	; 0x468 <d3_setMatrixColor>
     fa2:	ca 54       	subi	r28, 0x4A	; 74
     fa4:	df 4f       	sbci	r29, 0xFF	; 255
     fa6:	0f b6       	in	r0, 0x3f	; 63
     fa8:	f8 94       	cli
     faa:	de bf       	out	0x3e, r29	; 62
     fac:	0f be       	out	0x3f, r0	; 63
     fae:	cd bf       	out	0x3d, r28	; 61
     fb0:	df 91       	pop	r29
     fb2:	cf 91       	pop	r28
     fb4:	08 95       	ret

00000fb6 <displayGame>:
     fb6:	c2 df       	rcall	.-124    	; 0xf3c <displayLevel>
     fb8:	e7 da       	rcall	.-2610   	; 0x588 <DeathTick>
     fba:	4f dd       	rcall	.-1378   	; 0xa5a <WinTick>
     fbc:	62 e0       	ldi	r22, 0x02	; 2
     fbe:	8e ee       	ldi	r24, 0xEE	; 238
     fc0:	91 e0       	ldi	r25, 0x01	; 1
     fc2:	52 ca       	rjmp	.-2908   	; 0x468 <d3_setMatrixColor>
     fc4:	08 95       	ret

00000fc6 <displayClear>:
     fc6:	62 e0       	ldi	r22, 0x02	; 2
     fc8:	87 e2       	ldi	r24, 0x27	; 39
     fca:	91 e0       	ldi	r25, 0x01	; 1
     fcc:	4d da       	rcall	.-2918   	; 0x468 <d3_setMatrixColor>
     fce:	61 e0       	ldi	r22, 0x01	; 1
     fd0:	87 e2       	ldi	r24, 0x27	; 39
     fd2:	91 e0       	ldi	r25, 0x01	; 1
     fd4:	49 da       	rcall	.-2926   	; 0x468 <d3_setMatrixColor>
     fd6:	60 e0       	ldi	r22, 0x00	; 0
     fd8:	87 e2       	ldi	r24, 0x27	; 39
     fda:	91 e0       	ldi	r25, 0x01	; 1
     fdc:	45 ca       	rjmp	.-2934   	; 0x468 <d3_setMatrixColor>
     fde:	08 95       	ret

00000fe0 <LED_Tick>:
     fe0:	ef 92       	push	r14
     fe2:	ff 92       	push	r15
     fe4:	0f 93       	push	r16
     fe6:	1f 93       	push	r17
     fe8:	cf 93       	push	r28
     fea:	df 93       	push	r29
     fec:	cd b7       	in	r28, 0x3d	; 61
     fee:	de b7       	in	r29, 0x3e	; 62
     ff0:	2a 97       	sbiw	r28, 0x0a	; 10
     ff2:	0f b6       	in	r0, 0x3f	; 63
     ff4:	f8 94       	cli
     ff6:	de bf       	out	0x3e, r29	; 62
     ff8:	0f be       	out	0x3f, r0	; 63
     ffa:	cd bf       	out	0x3d, r28	; 61
     ffc:	80 91 24 01 	lds	r24, 0x0124
    1000:	81 30       	cpi	r24, 0x01	; 1
    1002:	51 f0       	breq	.+20     	; 0x1018 <LED_Tick+0x38>
    1004:	18 f0       	brcs	.+6      	; 0x100c <LED_Tick+0x2c>
    1006:	82 30       	cpi	r24, 0x02	; 2
    1008:	a1 f1       	breq	.+104    	; 0x1072 <LED_Tick+0x92>
    100a:	3b c0       	rjmp	.+118    	; 0x1082 <LED_Tick+0xa2>
    100c:	81 e0       	ldi	r24, 0x01	; 1
    100e:	80 93 24 01 	sts	0x0124, r24
    1012:	10 92 26 01 	sts	0x0126, r1
    1016:	35 c0       	rjmp	.+106    	; 0x1082 <LED_Tick+0xa2>
    1018:	80 91 26 01 	lds	r24, 0x0126
    101c:	88 23       	and	r24, r24
    101e:	b1 f1       	breq	.+108    	; 0x108c <LED_Tick+0xac>
    1020:	82 e0       	ldi	r24, 0x02	; 2
    1022:	80 93 24 01 	sts	0x0124, r24
    1026:	e0 90 ee 01 	lds	r14, 0x01EE
    102a:	f0 90 ef 01 	lds	r15, 0x01EF
    102e:	00 91 f0 01 	lds	r16, 0x01F0
    1032:	10 91 f1 01 	lds	r17, 0x01F1
    1036:	20 91 f2 01 	lds	r18, 0x01F2
    103a:	30 91 f3 01 	lds	r19, 0x01F3
    103e:	40 91 f4 01 	lds	r20, 0x01F4
    1042:	50 91 f5 01 	lds	r21, 0x01F5
    1046:	60 91 f6 01 	lds	r22, 0x01F6
    104a:	70 91 f7 01 	lds	r23, 0x01F7
    104e:	ce 01       	movw	r24, r28
    1050:	01 96       	adiw	r24, 0x01	; 1
    1052:	57 d9       	rcall	.-3410   	; 0x302 <initSingleUserMatrix>
    1054:	8a e0       	ldi	r24, 0x0A	; 10
    1056:	fe 01       	movw	r30, r28
    1058:	31 96       	adiw	r30, 0x01	; 1
    105a:	ae ee       	ldi	r26, 0xEE	; 238
    105c:	b1 e0       	ldi	r27, 0x01	; 1
    105e:	01 90       	ld	r0, Z+
    1060:	0d 92       	st	X+, r0
    1062:	8a 95       	dec	r24
    1064:	e1 f7       	brne	.-8      	; 0x105e <LED_Tick+0x7e>
    1066:	10 92 ed 01 	sts	0x01ED, r1
    106a:	10 92 0d 01 	sts	0x010D, r1
    106e:	e2 db       	rcall	.-2108   	; 0x834 <setLevel>
    1070:	08 c0       	rjmp	.+16     	; 0x1082 <LED_Tick+0xa2>
    1072:	80 91 26 01 	lds	r24, 0x0126
    1076:	81 11       	cpse	r24, r1
    1078:	08 c0       	rjmp	.+16     	; 0x108a <LED_Tick+0xaa>
    107a:	81 e0       	ldi	r24, 0x01	; 1
    107c:	80 93 24 01 	sts	0x0124, r24
    1080:	a2 df       	rcall	.-188    	; 0xfc6 <displayClear>
    1082:	80 91 24 01 	lds	r24, 0x0124
    1086:	82 30       	cpi	r24, 0x02	; 2
    1088:	09 f4       	brne	.+2      	; 0x108c <LED_Tick+0xac>
    108a:	95 df       	rcall	.-214    	; 0xfb6 <displayGame>
    108c:	2a 96       	adiw	r28, 0x0a	; 10
    108e:	0f b6       	in	r0, 0x3f	; 63
    1090:	f8 94       	cli
    1092:	de bf       	out	0x3e, r29	; 62
    1094:	0f be       	out	0x3f, r0	; 63
    1096:	cd bf       	out	0x3d, r28	; 61
    1098:	df 91       	pop	r29
    109a:	cf 91       	pop	r28
    109c:	1f 91       	pop	r17
    109e:	0f 91       	pop	r16
    10a0:	ff 90       	pop	r15
    10a2:	ef 90       	pop	r14
    10a4:	08 95       	ret

000010a6 <sendLevelDetails>:
    10a6:	e0 ec       	ldi	r30, 0xC0	; 192
    10a8:	f0 e0       	ldi	r31, 0x00	; 0
    10aa:	80 81       	ld	r24, Z
    10ac:	85 ff       	sbrs	r24, 5
    10ae:	fd cf       	rjmp	.-6      	; 0x10aa <sendLevelDetails+0x4>
    10b0:	60 e0       	ldi	r22, 0x00	; 0
    10b2:	80 91 0d 01 	lds	r24, 0x010D
    10b6:	44 da       	rcall	.-2936   	; 0x540 <USART_Send>
    10b8:	e0 ec       	ldi	r30, 0xC0	; 192
    10ba:	f0 e0       	ldi	r31, 0x00	; 0
    10bc:	80 81       	ld	r24, Z
    10be:	85 ff       	sbrs	r24, 5
    10c0:	fd cf       	rjmp	.-6      	; 0x10bc <sendLevelDetails+0x16>
    10c2:	f9 99       	sbic	0x1f, 1	; 31
    10c4:	fe cf       	rjmp	.-4      	; 0x10c2 <sendLevelDetails+0x1c>
    10c6:	80 91 0d 01 	lds	r24, 0x010D
    10ca:	2a ef       	ldi	r18, 0xFA	; 250
    10cc:	82 9f       	mul	r24, r18
    10ce:	c0 01       	movw	r24, r0
    10d0:	11 24       	eor	r1, r1
    10d2:	01 96       	adiw	r24, 0x01	; 1
    10d4:	64 d3       	rcall	.+1736   	; 0x179e <eeprom_read_byte>
    10d6:	60 e0       	ldi	r22, 0x00	; 0
    10d8:	80 68       	ori	r24, 0x80	; 128
    10da:	32 ca       	rjmp	.-2972   	; 0x540 <USART_Send>
    10dc:	08 95       	ret

000010de <sendPatDetails>:
    10de:	e0 ec       	ldi	r30, 0xC0	; 192
    10e0:	f0 e0       	ldi	r31, 0x00	; 0
    10e2:	80 81       	ld	r24, Z
    10e4:	85 ff       	sbrs	r24, 5
    10e6:	fd cf       	rjmp	.-6      	; 0x10e2 <sendPatDetails+0x4>
    10e8:	e0 91 0c 01 	lds	r30, 0x010C
    10ec:	f0 e0       	ldi	r31, 0x00	; 0
    10ee:	e6 52       	subi	r30, 0x26	; 38
    10f0:	fe 4f       	sbci	r31, 0xFE	; 254
    10f2:	60 e0       	ldi	r22, 0x00	; 0
    10f4:	80 81       	ld	r24, Z
    10f6:	24 da       	rcall	.-3000   	; 0x540 <USART_Send>
    10f8:	e0 ec       	ldi	r30, 0xC0	; 192
    10fa:	f0 e0       	ldi	r31, 0x00	; 0
    10fc:	80 81       	ld	r24, Z
    10fe:	85 ff       	sbrs	r24, 5
    1100:	fd cf       	rjmp	.-6      	; 0x10fc <sendPatDetails+0x1e>
    1102:	e0 91 0c 01 	lds	r30, 0x010C
    1106:	f0 e0       	ldi	r31, 0x00	; 0
    1108:	e8 53       	subi	r30, 0x38	; 56
    110a:	fe 4f       	sbci	r31, 0xFE	; 254
    110c:	80 81       	ld	r24, Z
    110e:	60 e0       	ldi	r22, 0x00	; 0
    1110:	80 68       	ori	r24, 0x80	; 128
    1112:	16 ca       	rjmp	.-3028   	; 0x540 <USART_Send>
    1114:	08 95       	ret

00001116 <storePattern>:
    1116:	80 91 06 01 	lds	r24, 0x0106
    111a:	88 23       	and	r24, r24
    111c:	79 f0       	breq	.+30     	; 0x113c <storePattern+0x26>
    111e:	f9 99       	sbic	0x1f, 1	; 31
    1120:	fe cf       	rjmp	.-4      	; 0x111e <storePattern+0x8>
    1122:	e0 91 0c 01 	lds	r30, 0x010C
    1126:	f0 e0       	ldi	r31, 0x00	; 0
    1128:	e8 53       	subi	r30, 0x38	; 56
    112a:	fe 4f       	sbci	r31, 0xFE	; 254
    112c:	60 81       	ld	r22, Z
    112e:	80 91 07 01 	lds	r24, 0x0107
    1132:	90 91 08 01 	lds	r25, 0x0108
    1136:	3b d3       	rcall	.+1654   	; 0x17ae <eeprom_update_byte>
    1138:	10 92 06 01 	sts	0x0106, r1
    113c:	80 91 09 01 	lds	r24, 0x0109
    1140:	88 23       	and	r24, r24
    1142:	79 f0       	breq	.+30     	; 0x1162 <storePattern+0x4c>
    1144:	f9 99       	sbic	0x1f, 1	; 31
    1146:	fe cf       	rjmp	.-4      	; 0x1144 <storePattern+0x2e>
    1148:	e0 91 0c 01 	lds	r30, 0x010C
    114c:	f0 e0       	ldi	r31, 0x00	; 0
    114e:	e6 52       	subi	r30, 0x26	; 38
    1150:	fe 4f       	sbci	r31, 0xFE	; 254
    1152:	60 81       	ld	r22, Z
    1154:	80 91 0a 01 	lds	r24, 0x010A
    1158:	90 91 0b 01 	lds	r25, 0x010B
    115c:	28 d3       	rcall	.+1616   	; 0x17ae <eeprom_update_byte>
    115e:	10 92 09 01 	sts	0x0109, r1
    1162:	08 95       	ret

00001164 <Edit_Tick>:
    1164:	80 91 00 02 	lds	r24, 0x0200
    1168:	82 30       	cpi	r24, 0x02	; 2
    116a:	91 f1       	breq	.+100    	; 0x11d0 <Edit_Tick+0x6c>
    116c:	28 f4       	brcc	.+10     	; 0x1178 <Edit_Tick+0x14>
    116e:	88 23       	and	r24, r24
    1170:	51 f0       	breq	.+20     	; 0x1186 <Edit_Tick+0x22>
    1172:	81 30       	cpi	r24, 0x01	; 1
    1174:	79 f0       	breq	.+30     	; 0x1194 <Edit_Tick+0x30>
    1176:	7d c0       	rjmp	.+250    	; 0x1272 <Edit_Tick+0x10e>
    1178:	83 30       	cpi	r24, 0x03	; 3
    117a:	09 f4       	brne	.+2      	; 0x117e <Edit_Tick+0x1a>
    117c:	49 c0       	rjmp	.+146    	; 0x1210 <Edit_Tick+0xac>
    117e:	84 30       	cpi	r24, 0x04	; 4
    1180:	09 f4       	brne	.+2      	; 0x1184 <Edit_Tick+0x20>
    1182:	60 c0       	rjmp	.+192    	; 0x1244 <Edit_Tick+0xe0>
    1184:	76 c0       	rjmp	.+236    	; 0x1272 <Edit_Tick+0x10e>
    1186:	81 e0       	ldi	r24, 0x01	; 1
    1188:	80 93 00 02 	sts	0x0200, r24
    118c:	10 92 2f 01 	sts	0x012F, r1
    1190:	1a df       	rcall	.-460    	; 0xfc6 <displayClear>
    1192:	6f c0       	rjmp	.+222    	; 0x1272 <Edit_Tick+0x10e>
    1194:	80 91 2f 01 	lds	r24, 0x012F
    1198:	88 23       	and	r24, r24
    119a:	09 f4       	brne	.+2      	; 0x119e <Edit_Tick+0x3a>
    119c:	78 c0       	rjmp	.+240    	; 0x128e <Edit_Tick+0x12a>
    119e:	81 30       	cpi	r24, 0x01	; 1
    11a0:	51 f4       	brne	.+20     	; 0x11b6 <Edit_Tick+0x52>
    11a2:	82 e0       	ldi	r24, 0x02	; 2
    11a4:	80 93 00 02 	sts	0x0200, r24
    11a8:	10 92 0d 01 	sts	0x010D, r1
    11ac:	10 92 ed 01 	sts	0x01ED, r1
    11b0:	41 db       	rcall	.-2430   	; 0x834 <setLevel>
    11b2:	79 df       	rcall	.-270    	; 0x10a6 <sendLevelDetails>
    11b4:	5e c0       	rjmp	.+188    	; 0x1272 <Edit_Tick+0x10e>
    11b6:	82 30       	cpi	r24, 0x02	; 2
    11b8:	21 f4       	brne	.+8      	; 0x11c2 <Edit_Tick+0x5e>
    11ba:	83 e0       	ldi	r24, 0x03	; 3
    11bc:	80 93 00 02 	sts	0x0200, r24
    11c0:	62 c0       	rjmp	.+196    	; 0x1286 <Edit_Tick+0x122>
    11c2:	83 30       	cpi	r24, 0x03	; 3
    11c4:	09 f0       	breq	.+2      	; 0x11c8 <Edit_Tick+0x64>
    11c6:	63 c0       	rjmp	.+198    	; 0x128e <Edit_Tick+0x12a>
    11c8:	84 e0       	ldi	r24, 0x04	; 4
    11ca:	80 93 00 02 	sts	0x0200, r24
    11ce:	5d c0       	rjmp	.+186    	; 0x128a <Edit_Tick+0x126>
    11d0:	80 91 2f 01 	lds	r24, 0x012F
    11d4:	81 11       	cpse	r24, r1
    11d6:	05 c0       	rjmp	.+10     	; 0x11e2 <Edit_Tick+0x7e>
    11d8:	81 e0       	ldi	r24, 0x01	; 1
    11da:	80 93 00 02 	sts	0x0200, r24
    11de:	f3 de       	rcall	.-538    	; 0xfc6 <displayClear>
    11e0:	48 c0       	rjmp	.+144    	; 0x1272 <Edit_Tick+0x10e>
    11e2:	81 30       	cpi	r24, 0x01	; 1
    11e4:	09 f4       	brne	.+2      	; 0x11e8 <Edit_Tick+0x84>
    11e6:	4d c0       	rjmp	.+154    	; 0x1282 <Edit_Tick+0x11e>
    11e8:	82 30       	cpi	r24, 0x02	; 2
    11ea:	59 f4       	brne	.+22     	; 0x1202 <Edit_Tick+0x9e>
    11ec:	83 e0       	ldi	r24, 0x03	; 3
    11ee:	80 93 00 02 	sts	0x0200, r24
    11f2:	10 92 09 01 	sts	0x0109, r1
    11f6:	10 92 06 01 	sts	0x0106, r1
    11fa:	10 92 0c 01 	sts	0x010C, r1
    11fe:	6f df       	rcall	.-290    	; 0x10de <sendPatDetails>
    1200:	38 c0       	rjmp	.+112    	; 0x1272 <Edit_Tick+0x10e>
    1202:	83 30       	cpi	r24, 0x03	; 3
    1204:	09 f0       	breq	.+2      	; 0x1208 <Edit_Tick+0xa4>
    1206:	3d c0       	rjmp	.+122    	; 0x1282 <Edit_Tick+0x11e>
    1208:	84 e0       	ldi	r24, 0x04	; 4
    120a:	80 93 00 02 	sts	0x0200, r24
    120e:	3d c0       	rjmp	.+122    	; 0x128a <Edit_Tick+0x126>
    1210:	80 91 2f 01 	lds	r24, 0x012F
    1214:	81 11       	cpse	r24, r1
    1216:	05 c0       	rjmp	.+10     	; 0x1222 <Edit_Tick+0xbe>
    1218:	81 e0       	ldi	r24, 0x01	; 1
    121a:	80 93 00 02 	sts	0x0200, r24
    121e:	d3 de       	rcall	.-602    	; 0xfc6 <displayClear>
    1220:	28 c0       	rjmp	.+80     	; 0x1272 <Edit_Tick+0x10e>
    1222:	81 30       	cpi	r24, 0x01	; 1
    1224:	41 f4       	brne	.+16     	; 0x1236 <Edit_Tick+0xd2>
    1226:	82 e0       	ldi	r24, 0x02	; 2
    1228:	80 93 00 02 	sts	0x0200, r24
    122c:	74 df       	rcall	.-280    	; 0x1116 <storePattern>
    122e:	3b df       	rcall	.-394    	; 0x10a6 <sendLevelDetails>
    1230:	10 92 ed 01 	sts	0x01ED, r1
    1234:	1e c0       	rjmp	.+60     	; 0x1272 <Edit_Tick+0x10e>
    1236:	83 30       	cpi	r24, 0x03	; 3
    1238:	31 f5       	brne	.+76     	; 0x1286 <Edit_Tick+0x122>
    123a:	84 e0       	ldi	r24, 0x04	; 4
    123c:	80 93 00 02 	sts	0x0200, r24
    1240:	6a df       	rcall	.-300    	; 0x1116 <storePattern>
    1242:	17 c0       	rjmp	.+46     	; 0x1272 <Edit_Tick+0x10e>
    1244:	80 91 2f 01 	lds	r24, 0x012F
    1248:	81 11       	cpse	r24, r1
    124a:	05 c0       	rjmp	.+10     	; 0x1256 <Edit_Tick+0xf2>
    124c:	81 e0       	ldi	r24, 0x01	; 1
    124e:	80 93 00 02 	sts	0x0200, r24
    1252:	b9 de       	rcall	.-654    	; 0xfc6 <displayClear>
    1254:	0e c0       	rjmp	.+28     	; 0x1272 <Edit_Tick+0x10e>
    1256:	81 30       	cpi	r24, 0x01	; 1
    1258:	21 f4       	brne	.+8      	; 0x1262 <Edit_Tick+0xfe>
    125a:	82 e0       	ldi	r24, 0x02	; 2
    125c:	80 93 00 02 	sts	0x0200, r24
    1260:	10 c0       	rjmp	.+32     	; 0x1282 <Edit_Tick+0x11e>
    1262:	82 30       	cpi	r24, 0x02	; 2
    1264:	91 f4       	brne	.+36     	; 0x128a <Edit_Tick+0x126>
    1266:	83 e0       	ldi	r24, 0x03	; 3
    1268:	80 93 00 02 	sts	0x0200, r24
    126c:	38 df       	rcall	.-400    	; 0x10de <sendPatDetails>
    126e:	6b dd       	rcall	.-1322   	; 0xd46 <updatePattern>
    1270:	ae dd       	rcall	.-1188   	; 0xdce <updateWall>
    1272:	80 91 00 02 	lds	r24, 0x0200
    1276:	83 30       	cpi	r24, 0x03	; 3
    1278:	31 f0       	breq	.+12     	; 0x1286 <Edit_Tick+0x122>
    127a:	84 30       	cpi	r24, 0x04	; 4
    127c:	31 f0       	breq	.+12     	; 0x128a <Edit_Tick+0x126>
    127e:	82 30       	cpi	r24, 0x02	; 2
    1280:	31 f4       	brne	.+12     	; 0x128e <Edit_Tick+0x12a>
    1282:	5c ce       	rjmp	.-840    	; 0xf3c <displayLevel>
    1284:	08 95       	ret
    1286:	bf ca       	rjmp	.-2690   	; 0x806 <displayCurrentPattern>
    1288:	08 95       	ret
    128a:	bd da       	rcall	.-2694   	; 0x806 <displayCurrentPattern>
    128c:	ce ca       	rjmp	.-2660   	; 0x82a <displayUser>
    128e:	08 95       	ret

00001290 <userMoveVertical>:
    1290:	88 23       	and	r24, r24
    1292:	c1 f1       	breq	.+112    	; 0x1304 <userMoveVertical+0x74>
    1294:	e0 91 f6 01 	lds	r30, 0x01F6
    1298:	e7 30       	cpi	r30, 0x07	; 7
    129a:	08 f0       	brcs	.+2      	; 0x129e <userMoveVertical+0xe>
    129c:	67 c0       	rjmp	.+206    	; 0x136c <userMoveVertical+0xdc>
    129e:	80 91 2f 01 	lds	r24, 0x012F
    12a2:	83 30       	cpi	r24, 0x03	; 3
    12a4:	91 f0       	breq	.+36     	; 0x12ca <userMoveVertical+0x3a>
    12a6:	81 e0       	ldi	r24, 0x01	; 1
    12a8:	90 e0       	ldi	r25, 0x00	; 0
    12aa:	00 90 f7 01 	lds	r0, 0x01F7
    12ae:	02 c0       	rjmp	.+4      	; 0x12b4 <userMoveVertical+0x24>
    12b0:	88 0f       	add	r24, r24
    12b2:	99 1f       	adc	r25, r25
    12b4:	0a 94       	dec	r0
    12b6:	e2 f7       	brpl	.-8      	; 0x12b0 <userMoveVertical+0x20>
    12b8:	ae 2f       	mov	r26, r30
    12ba:	b0 e0       	ldi	r27, 0x00	; 0
    12bc:	a8 50       	subi	r26, 0x08	; 8
    12be:	be 4f       	sbci	r27, 0xFE	; 254
    12c0:	11 96       	adiw	r26, 0x01	; 1
    12c2:	9c 91       	ld	r25, X
    12c4:	89 23       	and	r24, r25
    12c6:	09 f4       	brne	.+2      	; 0x12ca <userMoveVertical+0x3a>
    12c8:	51 c0       	rjmp	.+162    	; 0x136c <userMoveVertical+0xdc>
    12ca:	ef 5f       	subi	r30, 0xFF	; 255
    12cc:	ae ee       	ldi	r26, 0xEE	; 238
    12ce:	b1 e0       	ldi	r27, 0x01	; 1
    12d0:	18 96       	adiw	r26, 0x08	; 8
    12d2:	ec 93       	st	X, r30
    12d4:	18 97       	sbiw	r26, 0x08	; 8
    12d6:	f0 e0       	ldi	r31, 0x00	; 0
    12d8:	81 e0       	ldi	r24, 0x01	; 1
    12da:	90 e0       	ldi	r25, 0x00	; 0
    12dc:	19 96       	adiw	r26, 0x09	; 9
    12de:	0c 90       	ld	r0, X
    12e0:	02 c0       	rjmp	.+4      	; 0x12e6 <userMoveVertical+0x56>
    12e2:	88 0f       	add	r24, r24
    12e4:	99 1f       	adc	r25, r25
    12e6:	0a 94       	dec	r0
    12e8:	e2 f7       	brpl	.-8      	; 0x12e2 <userMoveVertical+0x52>
    12ea:	df 01       	movw	r26, r30
    12ec:	a3 51       	subi	r26, 0x13	; 19
    12ee:	be 4f       	sbci	r27, 0xFE	; 254
    12f0:	9c 91       	ld	r25, X
    12f2:	98 2b       	or	r25, r24
    12f4:	9c 93       	st	X, r25
    12f6:	e2 51       	subi	r30, 0x12	; 18
    12f8:	fe 4f       	sbci	r31, 0xFE	; 254
    12fa:	80 95       	com	r24
    12fc:	90 81       	ld	r25, Z
    12fe:	89 23       	and	r24, r25
    1300:	80 83       	st	Z, r24
    1302:	08 95       	ret
    1304:	e0 91 f6 01 	lds	r30, 0x01F6
    1308:	ee 23       	and	r30, r30
    130a:	81 f1       	breq	.+96     	; 0x136c <userMoveVertical+0xdc>
    130c:	80 91 2f 01 	lds	r24, 0x012F
    1310:	83 30       	cpi	r24, 0x03	; 3
    1312:	81 f0       	breq	.+32     	; 0x1334 <userMoveVertical+0xa4>
    1314:	81 e0       	ldi	r24, 0x01	; 1
    1316:	90 e0       	ldi	r25, 0x00	; 0
    1318:	00 90 f7 01 	lds	r0, 0x01F7
    131c:	02 c0       	rjmp	.+4      	; 0x1322 <userMoveVertical+0x92>
    131e:	88 0f       	add	r24, r24
    1320:	99 1f       	adc	r25, r25
    1322:	0a 94       	dec	r0
    1324:	e2 f7       	brpl	.-8      	; 0x131e <userMoveVertical+0x8e>
    1326:	ae 2f       	mov	r26, r30
    1328:	b0 e0       	ldi	r27, 0x00	; 0
    132a:	a9 50       	subi	r26, 0x09	; 9
    132c:	be 4f       	sbci	r27, 0xFE	; 254
    132e:	9c 91       	ld	r25, X
    1330:	89 23       	and	r24, r25
    1332:	e1 f0       	breq	.+56     	; 0x136c <userMoveVertical+0xdc>
    1334:	e1 50       	subi	r30, 0x01	; 1
    1336:	ae ee       	ldi	r26, 0xEE	; 238
    1338:	b1 e0       	ldi	r27, 0x01	; 1
    133a:	18 96       	adiw	r26, 0x08	; 8
    133c:	ec 93       	st	X, r30
    133e:	18 97       	sbiw	r26, 0x08	; 8
    1340:	f0 e0       	ldi	r31, 0x00	; 0
    1342:	81 e0       	ldi	r24, 0x01	; 1
    1344:	90 e0       	ldi	r25, 0x00	; 0
    1346:	19 96       	adiw	r26, 0x09	; 9
    1348:	0c 90       	ld	r0, X
    134a:	02 c0       	rjmp	.+4      	; 0x1350 <userMoveVertical+0xc0>
    134c:	88 0f       	add	r24, r24
    134e:	99 1f       	adc	r25, r25
    1350:	0a 94       	dec	r0
    1352:	e2 f7       	brpl	.-8      	; 0x134c <userMoveVertical+0xbc>
    1354:	df 01       	movw	r26, r30
    1356:	a1 51       	subi	r26, 0x11	; 17
    1358:	be 4f       	sbci	r27, 0xFE	; 254
    135a:	9c 91       	ld	r25, X
    135c:	98 2b       	or	r25, r24
    135e:	9c 93       	st	X, r25
    1360:	e2 51       	subi	r30, 0x12	; 18
    1362:	fe 4f       	sbci	r31, 0xFE	; 254
    1364:	80 95       	com	r24
    1366:	90 81       	ld	r25, Z
    1368:	89 23       	and	r24, r25
    136a:	80 83       	st	Z, r24
    136c:	08 95       	ret

0000136e <userMoveHorizontal>:
    136e:	88 23       	and	r24, r24
    1370:	b9 f1       	breq	.+110    	; 0x13e0 <userMoveHorizontal+0x72>
    1372:	80 91 f7 01 	lds	r24, 0x01F7
    1376:	87 30       	cpi	r24, 0x07	; 7
    1378:	08 f0       	brcs	.+2      	; 0x137c <userMoveHorizontal+0xe>
    137a:	66 c0       	rjmp	.+204    	; 0x1448 <userMoveHorizontal+0xda>
    137c:	90 91 2f 01 	lds	r25, 0x012F
    1380:	93 30       	cpi	r25, 0x03	; 3
    1382:	91 f0       	breq	.+36     	; 0x13a8 <userMoveHorizontal+0x3a>
    1384:	91 e0       	ldi	r25, 0x01	; 1
    1386:	98 0f       	add	r25, r24
    1388:	21 e0       	ldi	r18, 0x01	; 1
    138a:	30 e0       	ldi	r19, 0x00	; 0
    138c:	02 c0       	rjmp	.+4      	; 0x1392 <userMoveHorizontal+0x24>
    138e:	22 0f       	add	r18, r18
    1390:	33 1f       	adc	r19, r19
    1392:	9a 95       	dec	r25
    1394:	e2 f7       	brpl	.-8      	; 0x138e <userMoveHorizontal+0x20>
    1396:	e0 91 f6 01 	lds	r30, 0x01F6
    139a:	f0 e0       	ldi	r31, 0x00	; 0
    139c:	e8 50       	subi	r30, 0x08	; 8
    139e:	fe 4f       	sbci	r31, 0xFE	; 254
    13a0:	90 81       	ld	r25, Z
    13a2:	29 23       	and	r18, r25
    13a4:	09 f4       	brne	.+2      	; 0x13a8 <userMoveHorizontal+0x3a>
    13a6:	50 c0       	rjmp	.+160    	; 0x1448 <userMoveHorizontal+0xda>
    13a8:	91 e0       	ldi	r25, 0x01	; 1
    13aa:	98 0f       	add	r25, r24
    13ac:	ee ee       	ldi	r30, 0xEE	; 238
    13ae:	f1 e0       	ldi	r31, 0x01	; 1
    13b0:	91 87       	std	Z+9, r25	; 0x09
    13b2:	e0 85       	ldd	r30, Z+8	; 0x08
    13b4:	f0 e0       	ldi	r31, 0x00	; 0
    13b6:	e2 51       	subi	r30, 0x12	; 18
    13b8:	fe 4f       	sbci	r31, 0xFE	; 254
    13ba:	21 e0       	ldi	r18, 0x01	; 1
    13bc:	30 e0       	ldi	r19, 0x00	; 0
    13be:	a9 01       	movw	r20, r18
    13c0:	02 c0       	rjmp	.+4      	; 0x13c6 <userMoveHorizontal+0x58>
    13c2:	44 0f       	add	r20, r20
    13c4:	55 1f       	adc	r21, r21
    13c6:	9a 95       	dec	r25
    13c8:	e2 f7       	brpl	.-8      	; 0x13c2 <userMoveHorizontal+0x54>
    13ca:	40 95       	com	r20
    13cc:	02 c0       	rjmp	.+4      	; 0x13d2 <userMoveHorizontal+0x64>
    13ce:	22 0f       	add	r18, r18
    13d0:	33 1f       	adc	r19, r19
    13d2:	8a 95       	dec	r24
    13d4:	e2 f7       	brpl	.-8      	; 0x13ce <userMoveHorizontal+0x60>
    13d6:	80 81       	ld	r24, Z
    13d8:	28 2b       	or	r18, r24
    13da:	24 23       	and	r18, r20
    13dc:	20 83       	st	Z, r18
    13de:	08 95       	ret
    13e0:	20 91 f7 01 	lds	r18, 0x01F7
    13e4:	22 23       	and	r18, r18
    13e6:	81 f1       	breq	.+96     	; 0x1448 <userMoveHorizontal+0xda>
    13e8:	80 91 2f 01 	lds	r24, 0x012F
    13ec:	83 30       	cpi	r24, 0x03	; 3
    13ee:	89 f0       	breq	.+34     	; 0x1412 <userMoveHorizontal+0xa4>
    13f0:	3f ef       	ldi	r19, 0xFF	; 255
    13f2:	32 0f       	add	r19, r18
    13f4:	81 e0       	ldi	r24, 0x01	; 1
    13f6:	90 e0       	ldi	r25, 0x00	; 0
    13f8:	02 c0       	rjmp	.+4      	; 0x13fe <userMoveHorizontal+0x90>
    13fa:	88 0f       	add	r24, r24
    13fc:	99 1f       	adc	r25, r25
    13fe:	3a 95       	dec	r19
    1400:	e2 f7       	brpl	.-8      	; 0x13fa <userMoveHorizontal+0x8c>
    1402:	e0 91 f6 01 	lds	r30, 0x01F6
    1406:	f0 e0       	ldi	r31, 0x00	; 0
    1408:	e8 50       	subi	r30, 0x08	; 8
    140a:	fe 4f       	sbci	r31, 0xFE	; 254
    140c:	90 81       	ld	r25, Z
    140e:	89 23       	and	r24, r25
    1410:	d9 f0       	breq	.+54     	; 0x1448 <userMoveHorizontal+0xda>
    1412:	3f ef       	ldi	r19, 0xFF	; 255
    1414:	32 0f       	add	r19, r18
    1416:	ee ee       	ldi	r30, 0xEE	; 238
    1418:	f1 e0       	ldi	r31, 0x01	; 1
    141a:	31 87       	std	Z+9, r19	; 0x09
    141c:	e0 85       	ldd	r30, Z+8	; 0x08
    141e:	f0 e0       	ldi	r31, 0x00	; 0
    1420:	e2 51       	subi	r30, 0x12	; 18
    1422:	fe 4f       	sbci	r31, 0xFE	; 254
    1424:	81 e0       	ldi	r24, 0x01	; 1
    1426:	90 e0       	ldi	r25, 0x00	; 0
    1428:	ac 01       	movw	r20, r24
    142a:	02 c0       	rjmp	.+4      	; 0x1430 <userMoveHorizontal+0xc2>
    142c:	44 0f       	add	r20, r20
    142e:	55 1f       	adc	r21, r21
    1430:	3a 95       	dec	r19
    1432:	e2 f7       	brpl	.-8      	; 0x142c <userMoveHorizontal+0xbe>
    1434:	40 95       	com	r20
    1436:	02 c0       	rjmp	.+4      	; 0x143c <userMoveHorizontal+0xce>
    1438:	88 0f       	add	r24, r24
    143a:	99 1f       	adc	r25, r25
    143c:	2a 95       	dec	r18
    143e:	e2 f7       	brpl	.-8      	; 0x1438 <userMoveHorizontal+0xca>
    1440:	90 81       	ld	r25, Z
    1442:	89 2b       	or	r24, r25
    1444:	84 23       	and	r24, r20
    1446:	80 83       	st	Z, r24
    1448:	08 95       	ret

0000144a <slideLevel>:
    144a:	cf 93       	push	r28
    144c:	f9 99       	sbic	0x1f, 1	; 31
    144e:	fe cf       	rjmp	.-4      	; 0x144c <slideLevel+0x2>
    1450:	88 23       	and	r24, r24
    1452:	89 f0       	breq	.+34     	; 0x1476 <slideLevel+0x2c>
    1454:	c0 91 0d 01 	lds	r28, 0x010D
    1458:	2a ef       	ldi	r18, 0xFA	; 250
    145a:	c2 9f       	mul	r28, r18
    145c:	c0 01       	movw	r24, r0
    145e:	11 24       	eor	r1, r1
    1460:	85 50       	subi	r24, 0x05	; 5
    1462:	9f 4f       	sbci	r25, 0xFF	; 255
    1464:	9c d1       	rcall	.+824    	; 0x179e <eeprom_read_byte>
    1466:	88 23       	and	r24, r24
    1468:	79 f0       	breq	.+30     	; 0x1488 <slideLevel+0x3e>
    146a:	cf 5f       	subi	r28, 0xFF	; 255
    146c:	c0 93 0d 01 	sts	0x010D, r28
    1470:	e1 d9       	rcall	.-3134   	; 0x834 <setLevel>
    1472:	19 de       	rcall	.-974    	; 0x10a6 <sendLevelDetails>
    1474:	09 c0       	rjmp	.+18     	; 0x1488 <slideLevel+0x3e>
    1476:	80 91 0d 01 	lds	r24, 0x010D
    147a:	88 23       	and	r24, r24
    147c:	29 f0       	breq	.+10     	; 0x1488 <slideLevel+0x3e>
    147e:	81 50       	subi	r24, 0x01	; 1
    1480:	80 93 0d 01 	sts	0x010D, r24
    1484:	d7 d9       	rcall	.-3154   	; 0x834 <setLevel>
    1486:	0f de       	rcall	.-994    	; 0x10a6 <sendLevelDetails>
    1488:	cf 91       	pop	r28
    148a:	08 95       	ret

0000148c <slidePattern>:
    148c:	88 23       	and	r24, r24
    148e:	d1 f0       	breq	.+52     	; 0x14c4 <slidePattern+0x38>
    1490:	20 91 0c 01 	lds	r18, 0x010C
    1494:	30 e0       	ldi	r19, 0x00	; 0
    1496:	80 91 ec 01 	lds	r24, 0x01EC
    149a:	90 e0       	ldi	r25, 0x00	; 0
    149c:	01 97       	sbiw	r24, 0x01	; 1
    149e:	28 17       	cp	r18, r24
    14a0:	39 07       	cpc	r19, r25
    14a2:	a4 f4       	brge	.+40     	; 0x14cc <slidePattern+0x40>
    14a4:	38 de       	rcall	.-912    	; 0x1116 <storePattern>
    14a6:	80 91 0c 01 	lds	r24, 0x010C
    14aa:	8f 5f       	subi	r24, 0xFF	; 255
    14ac:	80 93 0c 01 	sts	0x010C, r24
    14b0:	16 ce       	rjmp	.-980    	; 0x10de <sendPatDetails>
    14b2:	08 95       	ret
    14b4:	30 de       	rcall	.-928    	; 0x1116 <storePattern>
    14b6:	80 91 0c 01 	lds	r24, 0x010C
    14ba:	81 50       	subi	r24, 0x01	; 1
    14bc:	80 93 0c 01 	sts	0x010C, r24
    14c0:	0e ce       	rjmp	.-996    	; 0x10de <sendPatDetails>
    14c2:	08 95       	ret
    14c4:	80 91 0c 01 	lds	r24, 0x010C
    14c8:	81 11       	cpse	r24, r1
    14ca:	f4 cf       	rjmp	.-24     	; 0x14b4 <slidePattern+0x28>
    14cc:	08 95       	ret

000014ce <slideLED>:
    14ce:	cf 93       	push	r28
    14d0:	df 93       	push	r29
    14d2:	20 91 0c 01 	lds	r18, 0x010C
    14d6:	ce ee       	ldi	r28, 0xEE	; 238
    14d8:	d1 e0       	ldi	r29, 0x01	; 1
    14da:	88 85       	ldd	r24, Y+8	; 0x08
    14dc:	90 e0       	ldi	r25, 0x00	; 0
    14de:	e2 2f       	mov	r30, r18
    14e0:	f0 e0       	ldi	r31, 0x00	; 0
    14e2:	dc 01       	movw	r26, r24
    14e4:	38 e0       	ldi	r19, 0x08	; 8
    14e6:	23 9f       	mul	r18, r19
    14e8:	a0 0d       	add	r26, r0
    14ea:	b1 1d       	adc	r27, r1
    14ec:	11 24       	eor	r1, r1
    14ee:	a8 5c       	subi	r26, 0xC8	; 200
    14f0:	be 4f       	sbci	r27, 0xFE	; 254
    14f2:	4c 91       	ld	r20, X
    14f4:	21 e0       	ldi	r18, 0x01	; 1
    14f6:	30 e0       	ldi	r19, 0x00	; 0
    14f8:	09 84       	ldd	r0, Y+9	; 0x09
    14fa:	02 c0       	rjmp	.+4      	; 0x1500 <slideLED+0x32>
    14fc:	22 0f       	add	r18, r18
    14fe:	33 1f       	adc	r19, r19
    1500:	0a 94       	dec	r0
    1502:	e2 f7       	brpl	.-8      	; 0x14fc <slideLED+0x2e>
    1504:	54 2f       	mov	r21, r20
    1506:	52 23       	and	r21, r18
    1508:	a1 f4       	brne	.+40     	; 0x1532 <slideLED+0x64>
    150a:	ee 0f       	add	r30, r30
    150c:	ff 1f       	adc	r31, r31
    150e:	ee 0f       	add	r30, r30
    1510:	ff 1f       	adc	r31, r31
    1512:	ee 0f       	add	r30, r30
    1514:	ff 1f       	adc	r31, r31
    1516:	e8 0f       	add	r30, r24
    1518:	f9 1f       	adc	r31, r25
    151a:	e8 5c       	subi	r30, 0xC8	; 200
    151c:	fe 4f       	sbci	r31, 0xFE	; 254
    151e:	42 2b       	or	r20, r18
    1520:	40 83       	st	Z, r20
    1522:	fc 01       	movw	r30, r24
    1524:	e8 50       	subi	r30, 0x08	; 8
    1526:	fe 4f       	sbci	r31, 0xFE	; 254
    1528:	20 95       	com	r18
    152a:	90 81       	ld	r25, Z
    152c:	29 23       	and	r18, r25
    152e:	20 83       	st	Z, r18
    1530:	19 c0       	rjmp	.+50     	; 0x1564 <slideLED+0x96>
    1532:	dc 01       	movw	r26, r24
    1534:	a8 50       	subi	r26, 0x08	; 8
    1536:	be 4f       	sbci	r27, 0xFE	; 254
    1538:	5c 91       	ld	r21, X
    153a:	65 2f       	mov	r22, r21
    153c:	62 23       	and	r22, r18
    153e:	21 f4       	brne	.+8      	; 0x1548 <slideLED+0x7a>
    1540:	fd 01       	movw	r30, r26
    1542:	25 2b       	or	r18, r21
    1544:	20 83       	st	Z, r18
    1546:	0e c0       	rjmp	.+28     	; 0x1564 <slideLED+0x96>
    1548:	ee 0f       	add	r30, r30
    154a:	ff 1f       	adc	r31, r31
    154c:	ee 0f       	add	r30, r30
    154e:	ff 1f       	adc	r31, r31
    1550:	ee 0f       	add	r30, r30
    1552:	ff 1f       	adc	r31, r31
    1554:	8e 0f       	add	r24, r30
    1556:	9f 1f       	adc	r25, r31
    1558:	fc 01       	movw	r30, r24
    155a:	e8 5c       	subi	r30, 0xC8	; 200
    155c:	fe 4f       	sbci	r31, 0xFE	; 254
    155e:	20 95       	com	r18
    1560:	24 23       	and	r18, r20
    1562:	20 83       	st	Z, r18
    1564:	df 91       	pop	r29
    1566:	cf 91       	pop	r28
    1568:	08 95       	ret

0000156a <kpReceiver>:
    156a:	80 91 c0 00 	lds	r24, 0x00C0
    156e:	88 23       	and	r24, r24
    1570:	0c f0       	brlt	.+2      	; 0x1574 <kpReceiver+0xa>
    1572:	a4 c0       	rjmp	.+328    	; 0x16bc <kpReceiver+0x152>
    1574:	80 e0       	ldi	r24, 0x00	; 0
    1576:	0e 94 b2 02 	call	0x564	; 0x564 <USART_Receive>
    157a:	80 93 25 01 	sts	0x0125, r24
    157e:	89 30       	cpi	r24, 0x09	; 9
    1580:	09 f4       	brne	.+2      	; 0x1584 <kpReceiver+0x1a>
    1582:	65 c0       	rjmp	.+202    	; 0x164e <kpReceiver+0xe4>
    1584:	c8 f4       	brcc	.+50     	; 0x15b8 <kpReceiver+0x4e>
    1586:	84 30       	cpi	r24, 0x04	; 4
    1588:	09 f4       	brne	.+2      	; 0x158c <kpReceiver+0x22>
    158a:	47 c0       	rjmp	.+142    	; 0x161a <kpReceiver+0xb0>
    158c:	48 f4       	brcc	.+18     	; 0x15a0 <kpReceiver+0x36>
    158e:	81 30       	cpi	r24, 0x01	; 1
    1590:	09 f4       	brne	.+2      	; 0x1594 <kpReceiver+0x2a>
    1592:	3d c0       	rjmp	.+122    	; 0x160e <kpReceiver+0xa4>
    1594:	b0 f1       	brcs	.+108    	; 0x1602 <kpReceiver+0x98>
    1596:	82 30       	cpi	r24, 0x02	; 2
    1598:	b9 f1       	breq	.+110    	; 0x1608 <kpReceiver+0x9e>
    159a:	83 30       	cpi	r24, 0x03	; 3
    159c:	d9 f1       	breq	.+118    	; 0x1614 <kpReceiver+0xaa>
    159e:	08 95       	ret
    15a0:	86 30       	cpi	r24, 0x06	; 6
    15a2:	09 f4       	brne	.+2      	; 0x15a6 <kpReceiver+0x3c>
    15a4:	41 c0       	rjmp	.+130    	; 0x1628 <kpReceiver+0xbe>
    15a6:	08 f4       	brcc	.+2      	; 0x15aa <kpReceiver+0x40>
    15a8:	3c c0       	rjmp	.+120    	; 0x1622 <kpReceiver+0xb8>
    15aa:	87 30       	cpi	r24, 0x07	; 7
    15ac:	09 f4       	brne	.+2      	; 0x15b0 <kpReceiver+0x46>
    15ae:	40 c0       	rjmp	.+128    	; 0x1630 <kpReceiver+0xc6>
    15b0:	88 30       	cpi	r24, 0x08	; 8
    15b2:	09 f4       	brne	.+2      	; 0x15b6 <kpReceiver+0x4c>
    15b4:	40 c0       	rjmp	.+128    	; 0x1636 <kpReceiver+0xcc>
    15b6:	08 95       	ret
    15b8:	80 35       	cpi	r24, 0x50	; 80
    15ba:	09 f4       	brne	.+2      	; 0x15be <kpReceiver+0x54>
    15bc:	5a c0       	rjmp	.+180    	; 0x1672 <kpReceiver+0x108>
    15be:	78 f4       	brcc	.+30     	; 0x15de <kpReceiver+0x74>
    15c0:	8f 30       	cpi	r24, 0x0F	; 15
    15c2:	09 f4       	brne	.+2      	; 0x15c6 <kpReceiver+0x5c>
    15c4:	6a c0       	rjmp	.+212    	; 0x169a <kpReceiver+0x130>
    15c6:	20 f4       	brcc	.+8      	; 0x15d0 <kpReceiver+0x66>
    15c8:	8e 30       	cpi	r24, 0x0E	; 14
    15ca:	09 f4       	brne	.+2      	; 0x15ce <kpReceiver+0x64>
    15cc:	4c c0       	rjmp	.+152    	; 0x1666 <kpReceiver+0xfc>
    15ce:	08 95       	ret
    15d0:	80 33       	cpi	r24, 0x30	; 48
    15d2:	09 f4       	brne	.+2      	; 0x15d6 <kpReceiver+0x6c>
    15d4:	5e c0       	rjmp	.+188    	; 0x1692 <kpReceiver+0x128>
    15d6:	80 34       	cpi	r24, 0x40	; 64
    15d8:	09 f4       	brne	.+2      	; 0x15dc <kpReceiver+0x72>
    15da:	6f c0       	rjmp	.+222    	; 0x16ba <kpReceiver+0x150>
    15dc:	08 95       	ret
    15de:	80 3d       	cpi	r24, 0xD0	; 208
    15e0:	09 f4       	brne	.+2      	; 0x15e4 <kpReceiver+0x7a>
    15e2:	65 c0       	rjmp	.+202    	; 0x16ae <kpReceiver+0x144>
    15e4:	38 f4       	brcc	.+14     	; 0x15f4 <kpReceiver+0x8a>
    15e6:	80 36       	cpi	r24, 0x60	; 96
    15e8:	09 f4       	brne	.+2      	; 0x15ec <kpReceiver+0x82>
    15ea:	4d c0       	rjmp	.+154    	; 0x1686 <kpReceiver+0x11c>
    15ec:	80 3c       	cpi	r24, 0xC0	; 192
    15ee:	09 f4       	brne	.+2      	; 0x15f2 <kpReceiver+0x88>
    15f0:	61 c0       	rjmp	.+194    	; 0x16b4 <kpReceiver+0x14a>
    15f2:	08 95       	ret
    15f4:	80 3e       	cpi	r24, 0xE0	; 224
    15f6:	09 f4       	brne	.+2      	; 0x15fa <kpReceiver+0x90>
    15f8:	57 c0       	rjmp	.+174    	; 0x16a8 <kpReceiver+0x13e>
    15fa:	80 3f       	cpi	r24, 0xF0	; 240
    15fc:	09 f4       	brne	.+2      	; 0x1600 <kpReceiver+0x96>
    15fe:	51 c0       	rjmp	.+162    	; 0x16a2 <kpReceiver+0x138>
    1600:	08 95       	ret
    1602:	81 e0       	ldi	r24, 0x01	; 1
    1604:	45 ce       	rjmp	.-886    	; 0x1290 <userMoveVertical>
    1606:	08 95       	ret
    1608:	80 e0       	ldi	r24, 0x00	; 0
    160a:	42 ce       	rjmp	.-892    	; 0x1290 <userMoveVertical>
    160c:	08 95       	ret
    160e:	81 e0       	ldi	r24, 0x01	; 1
    1610:	ae ce       	rjmp	.-676    	; 0x136e <userMoveHorizontal>
    1612:	08 95       	ret
    1614:	80 e0       	ldi	r24, 0x00	; 0
    1616:	ab ce       	rjmp	.-682    	; 0x136e <userMoveHorizontal>
    1618:	08 95       	ret
    161a:	81 e0       	ldi	r24, 0x01	; 1
    161c:	80 93 26 01 	sts	0x0126, r24
    1620:	08 95       	ret
    1622:	10 92 26 01 	sts	0x0126, r1
    1626:	08 95       	ret
    1628:	81 e0       	ldi	r24, 0x01	; 1
    162a:	80 93 2f 01 	sts	0x012F, r24
    162e:	08 95       	ret
    1630:	10 92 2f 01 	sts	0x012F, r1
    1634:	08 95       	ret
    1636:	80 91 2f 01 	lds	r24, 0x012F
    163a:	81 30       	cpi	r24, 0x01	; 1
    163c:	11 f4       	brne	.+4      	; 0x1642 <kpReceiver+0xd8>
    163e:	05 cf       	rjmp	.-502    	; 0x144a <slideLevel>
    1640:	08 95       	ret
    1642:	82 30       	cpi	r24, 0x02	; 2
    1644:	09 f0       	breq	.+2      	; 0x1648 <kpReceiver+0xde>
    1646:	3a c0       	rjmp	.+116    	; 0x16bc <kpReceiver+0x152>
    1648:	81 e0       	ldi	r24, 0x01	; 1
    164a:	20 cf       	rjmp	.-448    	; 0x148c <slidePattern>
    164c:	08 95       	ret
    164e:	80 91 2f 01 	lds	r24, 0x012F
    1652:	81 30       	cpi	r24, 0x01	; 1
    1654:	19 f4       	brne	.+6      	; 0x165c <kpReceiver+0xf2>
    1656:	80 e0       	ldi	r24, 0x00	; 0
    1658:	f8 ce       	rjmp	.-528    	; 0x144a <slideLevel>
    165a:	08 95       	ret
    165c:	82 30       	cpi	r24, 0x02	; 2
    165e:	71 f5       	brne	.+92     	; 0x16bc <kpReceiver+0x152>
    1660:	80 e0       	ldi	r24, 0x00	; 0
    1662:	14 cf       	rjmp	.-472    	; 0x148c <slidePattern>
    1664:	08 95       	ret
    1666:	80 91 2f 01 	lds	r24, 0x012F
    166a:	8f 5f       	subi	r24, 0xFF	; 255
    166c:	80 93 2f 01 	sts	0x012F, r24
    1670:	08 95       	ret
    1672:	80 91 2f 01 	lds	r24, 0x012F
    1676:	81 30       	cpi	r24, 0x01	; 1
    1678:	11 f4       	brne	.+4      	; 0x167e <kpReceiver+0x114>
    167a:	44 ca       	rjmp	.-2936   	; 0xb04 <addLevel>
    167c:	08 95       	ret
    167e:	82 30       	cpi	r24, 0x02	; 2
    1680:	e9 f4       	brne	.+58     	; 0x16bc <kpReceiver+0x152>
    1682:	88 ca       	rjmp	.-2800   	; 0xb94 <addPattern>
    1684:	08 95       	ret
    1686:	80 91 2f 01 	lds	r24, 0x012F
    168a:	82 30       	cpi	r24, 0x02	; 2
    168c:	b9 f4       	brne	.+46     	; 0x16bc <kpReceiver+0x152>
    168e:	e6 ca       	rjmp	.-2612   	; 0xc5c <deletePattern>
    1690:	08 95       	ret
    1692:	82 e0       	ldi	r24, 0x02	; 2
    1694:	80 93 2f 01 	sts	0x012F, r24
    1698:	08 95       	ret
    169a:	81 e0       	ldi	r24, 0x01	; 1
    169c:	80 93 2f 01 	sts	0x012F, r24
    16a0:	08 95       	ret
    16a2:	81 e0       	ldi	r24, 0x01	; 1
    16a4:	03 cc       	rjmp	.-2042   	; 0xeac <editDuration>
    16a6:	08 95       	ret
    16a8:	81 e0       	ldi	r24, 0x01	; 1
    16aa:	b8 cb       	rjmp	.-2192   	; 0xe1c <editBetween>
    16ac:	08 95       	ret
    16ae:	80 e0       	ldi	r24, 0x00	; 0
    16b0:	fd cb       	rjmp	.-2054   	; 0xeac <editDuration>
    16b2:	08 95       	ret
    16b4:	80 e0       	ldi	r24, 0x00	; 0
    16b6:	b2 cb       	rjmp	.-2204   	; 0xe1c <editBetween>
    16b8:	08 95       	ret
    16ba:	09 cf       	rjmp	.-494    	; 0x14ce <slideLED>
    16bc:	08 95       	ret

000016be <main>:

void updatePattern();
void updateWall();


int main(void) {
    16be:	cf 93       	push	r28
    16c0:	df 93       	push	r29
    16c2:	cd b7       	in	r28, 0x3d	; 61
    16c4:	de b7       	in	r29, 0x3e	; 62
    16c6:	2a 97       	sbiw	r28, 0x0a	; 10
    16c8:	0f b6       	in	r0, 0x3f	; 63
    16ca:	f8 94       	cli
    16cc:	de bf       	out	0x3e, r29	; 62
    16ce:	0f be       	out	0x3f, r0	; 63
    16d0:	cd bf       	out	0x3d, r28	; 61
	DDRB = 0xFF; PORTB = 0x00;
    16d2:	8f ef       	ldi	r24, 0xFF	; 255
    16d4:	84 b9       	out	0x04, r24	; 4
    16d6:	15 b8       	out	0x05, r1	; 5
	DDRD = 0xFF; PORTD = 0x00;
    16d8:	8a b9       	out	0x0a, r24	; 10
    16da:	1b b8       	out	0x0b, r1	; 11
	DDRC = 0xFF; PORTC = 0x00;
    16dc:	87 b9       	out	0x07, r24	; 7
    16de:	18 b8       	out	0x08, r1	; 8
	
	initUSART(0);
    16e0:	80 e0       	ldi	r24, 0x00	; 0
    16e2:	0e 94 7e 02 	call	0x4fc	; 0x4fc <initUSART>
	
	// Make sure game turns on correctly
	//while (!eeprom_is_ready());
	//	eeprom_update_byte((uint8_t*)(1), 1);
	
	initNumLevel();
    16e6:	7a d8       	rcall	.-3852   	; 0x7dc <initNumLevel>
	initTasks();
    16e8:	0e 94 93 00 	call	0x126	; 0x126 <initTasks>
	}
}

// Set TimerISR() to tick every M ms
void TimerSet(unsigned long M) {
	_avr_timer_M = M;
    16ec:	8a e0       	ldi	r24, 0x0A	; 10
    16ee:	90 e0       	ldi	r25, 0x00	; 0
    16f0:	a0 e0       	ldi	r26, 0x00	; 0
    16f2:	b0 e0       	ldi	r27, 0x00	; 0
    16f4:	80 93 00 01 	sts	0x0100, r24
    16f8:	90 93 01 01 	sts	0x0101, r25
    16fc:	a0 93 02 01 	sts	0x0102, r26
    1700:	b0 93 03 01 	sts	0x0103, r27
	_avr_timer_cntcurr = _avr_timer_M;
    1704:	80 93 14 01 	sts	0x0114, r24
    1708:	90 93 15 01 	sts	0x0115, r25
    170c:	a0 93 16 01 	sts	0x0116, r26
    1710:	b0 93 17 01 	sts	0x0117, r27
	
	TimerSet(10);
	TimerOn();
    1714:	0e 94 a8 00 	call	0x150	; 0x150 <TimerOn>
	
	LED_State = LED_SMStart;
    1718:	10 92 24 01 	sts	0x0124, r1
	
	blankMatrix = clearSingleMatrix(blankMatrix);
    171c:	20 91 27 01 	lds	r18, 0x0127
    1720:	30 91 28 01 	lds	r19, 0x0128
    1724:	40 91 29 01 	lds	r20, 0x0129
    1728:	50 91 2a 01 	lds	r21, 0x012A
    172c:	60 91 2b 01 	lds	r22, 0x012B
    1730:	70 91 2c 01 	lds	r23, 0x012C
    1734:	80 91 2d 01 	lds	r24, 0x012D
    1738:	90 91 2e 01 	lds	r25, 0x012E
    173c:	0e 94 4b 01 	call	0x296	; 0x296 <clearSingleMatrix>
    1740:	e7 e2       	ldi	r30, 0x27	; 39
    1742:	f1 e0       	ldi	r31, 0x01	; 1
    1744:	20 83       	st	Z, r18
    1746:	31 83       	std	Z+1, r19	; 0x01
    1748:	42 83       	std	Z+2, r20	; 0x02
    174a:	53 83       	std	Z+3, r21	; 0x03
    174c:	64 83       	std	Z+4, r22	; 0x04
    174e:	75 83       	std	Z+5, r23	; 0x05
    1750:	86 83       	std	Z+6, r24	; 0x06
    1752:	97 83       	std	Z+7, r25	; 0x07
	userMatrix = initSingleUserMatrix(userMatrix);
    1754:	e0 90 ee 01 	lds	r14, 0x01EE
    1758:	f0 90 ef 01 	lds	r15, 0x01EF
    175c:	00 91 f0 01 	lds	r16, 0x01F0
    1760:	10 91 f1 01 	lds	r17, 0x01F1
    1764:	20 91 f2 01 	lds	r18, 0x01F2
    1768:	30 91 f3 01 	lds	r19, 0x01F3
    176c:	40 91 f4 01 	lds	r20, 0x01F4
    1770:	50 91 f5 01 	lds	r21, 0x01F5
    1774:	60 91 f6 01 	lds	r22, 0x01F6
    1778:	70 91 f7 01 	lds	r23, 0x01F7
    177c:	ce 01       	movw	r24, r28
    177e:	01 96       	adiw	r24, 0x01	; 1
    1780:	0e 94 81 01 	call	0x302	; 0x302 <initSingleUserMatrix>
    1784:	8a e0       	ldi	r24, 0x0A	; 10
    1786:	fe 01       	movw	r30, r28
    1788:	31 96       	adiw	r30, 0x01	; 1
    178a:	ae ee       	ldi	r26, 0xEE	; 238
    178c:	b1 e0       	ldi	r27, 0x01	; 1
    178e:	01 90       	ld	r0, Z+
    1790:	0d 92       	st	X+, r0
    1792:	8a 95       	dec	r24
    1794:	e1 f7       	brne	.-8      	; 0x178e <main+0xd0>
	
	while (1) {
		LED_Tick();
    1796:	24 dc       	rcall	.-1976   	; 0xfe0 <LED_Tick>
		Edit_Tick();
    1798:	e5 dc       	rcall	.-1590   	; 0x1164 <Edit_Tick>
	d3_setMatrixColor(blankMatrix.m, BLUE);
	d3_setMatrixColor(blankMatrix.m, RED);
}

void KB_Tick() {
	kpReceiver();
    179a:	e7 de       	rcall	.-562    	; 0x156a <kpReceiver>
    179c:	fc cf       	rjmp	.-8      	; 0x1796 <main+0xd8>

0000179e <eeprom_read_byte>:
    179e:	f9 99       	sbic	0x1f, 1	; 31
    17a0:	fe cf       	rjmp	.-4      	; 0x179e <eeprom_read_byte>
    17a2:	92 bd       	out	0x22, r25	; 34
    17a4:	81 bd       	out	0x21, r24	; 33
    17a6:	f8 9a       	sbi	0x1f, 0	; 31
    17a8:	99 27       	eor	r25, r25
    17aa:	80 b5       	in	r24, 0x20	; 32
    17ac:	08 95       	ret

000017ae <eeprom_update_byte>:
    17ae:	26 2f       	mov	r18, r22

000017b0 <eeprom_update_r18>:
    17b0:	f9 99       	sbic	0x1f, 1	; 31
    17b2:	fe cf       	rjmp	.-4      	; 0x17b0 <eeprom_update_r18>
    17b4:	92 bd       	out	0x22, r25	; 34
    17b6:	81 bd       	out	0x21, r24	; 33
    17b8:	f8 9a       	sbi	0x1f, 0	; 31
    17ba:	01 97       	sbiw	r24, 0x01	; 1
    17bc:	00 b4       	in	r0, 0x20	; 32
    17be:	02 16       	cp	r0, r18
    17c0:	39 f0       	breq	.+14     	; 0x17d0 <eeprom_update_r18+0x20>
    17c2:	1f ba       	out	0x1f, r1	; 31
    17c4:	20 bd       	out	0x20, r18	; 32
    17c6:	0f b6       	in	r0, 0x3f	; 63
    17c8:	f8 94       	cli
    17ca:	fa 9a       	sbi	0x1f, 2	; 31
    17cc:	f9 9a       	sbi	0x1f, 1	; 31
    17ce:	0f be       	out	0x3f, r0	; 63
    17d0:	08 95       	ret

000017d2 <_exit>:
    17d2:	f8 94       	cli

000017d4 <__stop_program>:
    17d4:	ff cf       	rjmp	.-2      	; 0x17d4 <__stop_program>
